(dp0
S'user_aluno'
p1
(dp2
S'rname'
p3
S'`user_aluno`'
p4
sS'sortable'
p5
I1
sS'raw_rname'
p6
S'user_aluno'
p7
sS'notnull'
p8
I01
sS'length'
p9
I64
sS'sql'
p10
S'VARCHAR(64) NOT NULL'
p11
sS'unique'
p12
I00
sS'type'
p13
S'string'
p14
ssS'passw_aluno'
p15
(dp16
S'rname'
p17
S'`passw_aluno`'
p18
sS'sortable'
p19
I2
sS'raw_rname'
p20
S'passw_aluno'
p21
sS'notnull'
p22
I00
sS'length'
p23
I512
sS'sql'
p24
S'VARCHAR(512)'
p25
sS'unique'
p26
I00
sS'type'
p27
S'string'
p28
ss.