(dp0
S'passw'
p1
(dp2
S'rname'
p3
S'`passw`'
p4
sS'sortable'
p5
I2
sS'raw_rname'
p6
g1
sS'notnull'
p7
I00
sS'length'
p8
I512
sS'sql'
p9
S'VARCHAR(512)'
p10
sS'unique'
p11
I00
sS'type'
p12
S'string'
p13
ssS'user'
p14
(dp15
g3
S'`user`'
p16
sg5
I1
sg6
g14
sg7
I01
sg8
I64
sg9
S'VARCHAR(64) NOT NULL'
p17
sg11
I00
sg12
g13
ss.