(dp1
S'output'
p2
S"<type 'exceptions.ValueError'> invalid literal for long() with base 10: 'bruno_galerani@hotmail.com'"
p3
sS'layer'
p4
S'C:\\Users\\Bruno\\Downloads\\web2py\\applications\\avalweb3\\controllers/provas.py'
p5
sS'code'
p6
S'<code object <module> at 04A89140, file "C:\\Users\\Bruno\\Downloads\\web2py\\applications\\avalweb3\\controllers/provas.py", line 1>'
p7
sS'snapshot'
p8
(dp9
S'exception'
p10
(dp11
S'__getslice__'
p12
S"<method-wrapper '__getslice__' of exceptions.ValueError object>"
p13
sS'__str__'
p14
S"<method-wrapper '__str__' of exceptions.ValueError object>"
p15
sS'__reduce__'
p16
S'<built-in method __reduce__ of exceptions.ValueError object>'
p17
sS'__dict__'
p18
S'{}'
p19
sS'message'
p20
S'"invalid literal for long() with base 10: \'bruno_galerani@hotmail.com\'"'
p21
sS'__sizeof__'
p22
S'<built-in method __sizeof__ of exceptions.ValueError object>'
p23
sS'__init__'
p24
S"<method-wrapper '__init__' of exceptions.ValueError object>"
p25
sS'__setattr__'
p26
S"<method-wrapper '__setattr__' of exceptions.ValueError object>"
p27
sS'__reduce_ex__'
p28
S'<built-in method __reduce_ex__ of exceptions.ValueError object>'
p29
sS'__new__'
p30
S'<built-in method __new__ of type object>'
p31
sS'__format__'
p32
S'<built-in method __format__ of exceptions.ValueError object>'
p33
sS'__class__'
p34
S"<type 'exceptions.ValueError'>"
p35
sS'__doc__'
p36
S"'Inappropriate argument value (of correct type).'"
p37
sS'__getitem__'
p38
S"<method-wrapper '__getitem__' of exceptions.ValueError object>"
p39
sS'__setstate__'
p40
S'<built-in method __setstate__ of exceptions.ValueError object>'
p41
sS'__getattribute__'
p42
S"<method-wrapper '__getattribute__' of exceptions.ValueError object>"
p43
sS'args'
p44
S'("invalid literal for long() with base 10: \'bruno_galerani@hotmail.com\'",)'
p45
sS'__subclasshook__'
p46
S'<built-in method __subclasshook__ of type object>'
p47
sS'__unicode__'
p48
S'<built-in method __unicode__ of exceptions.ValueError object>'
p49
sS'__delattr__'
p50
S"<method-wrapper '__delattr__' of exceptions.ValueError object>"
p51
sS'__repr__'
p52
S"<method-wrapper '__repr__' of exceptions.ValueError object>"
p53
sS'__hash__'
p54
S"<method-wrapper '__hash__' of exceptions.ValueError object>"
p55
ssS'evalue'
p56
S"invalid literal for long() with base 10: 'bruno_galerani@hotmail.com'"
p57
sS'request'
p58
cgluon.html
XML_unpickle
p59
(S's\xe3g\x00\x00<div><table><tr><td style="font-weight:bold;vertical-align:top;">ajax</td><td style="vertical-align:top;">:</td><td><div>False</div></td></tr><tr><td style="font-weight:bold;vertical-align:top;">application</td><td style="vertical-align:top;">:</td><td><div>avalweb3</div></td></tr><tr><td style="font-weight:bold;vertical-align:top;">args</td><td style="vertical-align:top;">:</td><td><div><table></table></div></td></tr><tr><td style="font-weight:bold;vertical-align:top;">cid</td><td style="vertical-align:top;">:</td><td><div>None</div></td></tr><tr><td style="font-weight:bold;vertical-align:top;">client</td><td style="vertical-align:top;">:</td><td><div>127.0.0.1</div></td></tr><tr><td style="font-weight:bold;vertical-align:top;">controller</td><td style="vertical-align:top;">:</td><td><div>provas</div></td></tr><tr><td style="font-weight:bold;vertical-align:top;">cookies</td><td style="vertical-align:top;">:</td><td><div><table><tr><td style="font-weight:bold;vertical-align:top;">session_id_admin</td><td style="vertical-align:top;">:</td><td><div>127.0.0.1-c962c8af-2d92-474d-a33d-8eb663d221bd<table><tr><td style="font-weight:bold;vertical-align:top;">comment</td><td style="vertical-align:top;">:</td><td><div></div></td></tr><tr><td style="font-weight:bold;vertical-align:top;">domain</td><td style="vertical-align:top;">:</td><td><div></div></td></tr><tr><td style="font-weight:bold;vertical-align:top;">expires</td><td style="vertical-align:top;">:</td><td><div></div></td></tr><tr><td style="font-weight:bold;vertical-align:top;">httponly</td><td style="vertical-align:top;">:</td><td><div></div></td></tr><tr><td style="font-weight:bold;vertical-align:top;">max-age</td><td style="vertical-align:top;">:</td><td><div></div></td></tr><tr><td style="font-weight:bold;vertical-align:top;">path</td><td style="vertical-align:top;">:</td><td><div></div></td></tr><tr><td style="font-weight:bold;vertical-align:top;">secure</td><td style="vertical-align:top;">:</td><td><div></div></td></tr><tr><td style="font-weight:bold;vertical-align:top;">version</td><td style="vertical-align:top;">:</td><td><div></div></td></tr></table></div></td></tr><tr><td style="font-weight:bold;vertical-align:top;">session_id_avalweb3</td><td style="vertical-align:top;">:</td><td><div>127.0.0.1-477ee33c-7220-4634-9fb6-ce55b68d60d3<table><tr><td style="font-weight:bold;vertical-align:top;">comment</td><td style="vertical-align:top;">:</td><td><div></div></td></tr><tr><td style="font-weight:bold;vertical-align:top;">domain</td><td style="vertical-align:top;">:</td><td><div></div></td></tr><tr><td style="font-weight:bold;vertical-align:top;">expires</td><td style="vertical-align:top;">:</td><td><div></div></td></tr><tr><td style="font-weight:bold;vertical-align:top;">httponly</td><td style="vertical-align:top;">:</td><td><div></div></td></tr><tr><td style="font-weight:bold;vertical-align:top;">max-age</td><td style="vertical-align:top;">:</td><td><div></div></td></tr><tr><td style="font-weight:bold;vertical-align:top;">path</td><td style="vertical-align:top;">:</td><td><div></div></td></tr><tr><td style="font-weight:bold;vertical-align:top;">secure</td><td style="vertical-align:top;">:</td><td><div></div></td></tr><tr><td style="font-weight:bold;vertical-align:top;">version</td><td style="vertical-align:top;">:</td><td><div></div></td></tr></table></div></td></tr><tr><td style="font-weight:bold;vertical-align:top;">session_id_welcome</td><td style="vertical-align:top;">:</td><td><div>127.0.0.1-d280b47c-b17c-435a-bbc4-d1e003233de9<table><tr><td style="font-weight:bold;vertical-align:top;">comment</td><td style="vertical-align:top;">:</td><td><div></div></td></tr><tr><td style="font-weight:bold;vertical-align:top;">domain</td><td style="vertical-align:top;">:</td><td><div></div></td></tr><tr><td style="font-weight:bold;vertical-align:top;">expires</td><td style="vertical-align:top;">:</td><td><div></div></td></tr><tr><td style="font-weight:bold;vertical-align:top;">httponly</td><td style="vertical-align:top;">:</td><td><div></div></td></tr><tr><td style="font-weight:bold;vertical-align:top;">max-age</td><td style="vertical-align:top;">:</td><td><div></div></td></tr><tr><td style="font-weight:bold;vertical-align:top;">path</td><td style="vertical-align:top;">:</td><td><div></div></td></tr><tr><td style="font-weight:bold;vertical-align:top;">secure</td><td style="vertical-align:top;">:</td><td><div></div></td></tr><tr><td style="font-weight:bold;vertical-align:top;">version</td><td style="vertical-align:top;">:</td><td><div></div></td></tr></table></div></td></tr></table></div></td></tr><tr><td style="font-weight:bold;vertical-align:top;">env</td><td style="vertical-align:top;">:</td><td><div><table><tr><td style="font-weight:bold;vertical-align:top;">CONTENT_LENGTH</td><td style="vertical-align:top;">:</td><td><div>386</div></td></tr><tr><td style="font-weight:bold;vertical-align:top;">CONTENT_TYPE</td><td style="vertical-align:top;">:</td><td><div>multipart/form-data; boundary=----WebKitFormBoundaryL4fcFzqLLLWAanyx</div></td></tr><tr><td style="font-weight:bold;vertical-align:top;">HTTP_ACCEPT</td><td style="vertical-align:top;">:</td><td><div>text/html,application/xhtml+xml,application/xml;q=0.9,image/webp,image/apng,*/*;q=0.8</div></td></tr><tr><td style="font-weight:bold;vertical-align:top;">HTTP_ACCEPT_ENCODING</td><td style="vertical-align:top;">:</td><td><div>gzip, deflate, br</div></td></tr><tr><td style="font-weight:bold;vertical-align:top;">HTTP_ACCEPT_LANGUAGE</td><td style="vertical-align:top;">:</td><td><div>pt-BR,pt;q=0.9,en-US;q=0.8,en;q=0.7</div></td></tr><tr><td style="font-weight:bold;vertical-align:top;">HTTP_CACHE_CONTROL</td><td style="vertical-align:top;">:</td><td><div>max-age=0</div></td></tr><tr><td style="font-weight:bold;vertical-align:top;">HTTP_CONNECTION</td><td style="vertical-align:top;">:</td><td><div>keep-alive</div></td></tr><tr><td style="font-weight:bold;vertical-align:top;">HTTP_CONTENT_LENGTH</td><td style="vertical-align:top;">:</td><td><div>386</div></td></tr><tr><td style="font-weight:bold;vertical-align:top;">HTTP_CONTENT_TYPE</td><td style="vertical-align:top;">:</td><td><div>multipart/form-data; boundary=----WebKitFormBoundaryL4fcFzqLLLWAanyx</div></td></tr><tr><td style="font-weight:bold;vertical-align:top;">HTTP_COOKIE</td><td style="vertical-align:top;">:</td><td><div>session_id_welcome=127.0.0.1-d280b47c-b17c-435a-bbc4-d1e003233de9; session_id_admin=127.0.0.1-c962c8af-2d92-474d-a33d-8eb663d221bd; session_id_avalweb3=127.0.0.1-477ee33c-7220-4634-9fb6-ce55b68d60d3</div></td></tr><tr><td style="font-weight:bold;vertical-align:top;">HTTP_HOST</td><td style="vertical-align:top;">:</td><td><div>127.0.0.1:8000</div></td></tr><tr><td style="font-weight:bold;vertical-align:top;">HTTP_ORIGIN</td><td style="vertical-align:top;">:</td><td><div>http://127.0.0.1:8000</div></td></tr><tr><td style="font-weight:bold;vertical-align:top;">HTTP_REFERER</td><td style="vertical-align:top;">:</td><td><div>http://127.0.0.1:8000/avalweb3/provas/provas_estatica</div></td></tr><tr><td style="font-weight:bold;vertical-align:top;">HTTP_UPGRADE_INSECURE_REQUESTS</td><td style="vertical-align:top;">:</td><td><div>1</div></td></tr><tr><td style="font-weight:bold;vertical-align:top;">HTTP_USER_AGENT</td><td style="vertical-align:top;">:</td><td><div>Mozilla/5.0 (Windows NT 6.1; Win64; x64) AppleWebKit/537.36 (KHTML, like Gecko) Chrome/62.0.3202.94 Safari/537.36</div></td></tr><tr><td style="font-weight:bold;vertical-align:top;">PATH_INFO</td><td style="vertical-align:top;">:</td><td><div>/avalweb3/provas/provas_estatica</div></td></tr><tr><td style="font-weight:bold;vertical-align:top;">QUERY_STRING</td><td style="vertical-align:top;">:</td><td><div></div></td></tr><tr><td style="font-weight:bold;vertical-align:top;">REMOTE_ADDR</td><td style="vertical-align:top;">:</td><td><div>127.0.0.1</div></td></tr><tr><td style="font-weight:bold;vertical-align:top;">REMOTE_PORT</td><td style="vertical-align:top;">:</td><td><div>1808</div></td></tr><tr><td style="font-weight:bold;vertical-align:top;">REQUEST_METHOD</td><td style="vertical-align:top;">:</td><td><div>POST</div></td></tr><tr><td style="font-weight:bold;vertical-align:top;">SCRIPT_NAME</td><td style="vertical-align:top;">:</td><td><div></div></td></tr><tr><td style="font-weight:bold;vertical-align:top;">SERVER_NAME</td><td style="vertical-align:top;">:</td><td><div>Bruno-PC</div></td></tr><tr><td style="font-weight:bold;vertical-align:top;">SERVER_PORT</td><td style="vertical-align:top;">:</td><td><div>8000</div></td></tr><tr><td style="font-weight:bold;vertical-align:top;">SERVER_PROTOCOL</td><td style="vertical-align:top;">:</td><td><div>HTTP/1.1</div></td></tr><tr><td style="font-weight:bold;vertical-align:top;">SERVER_SOFTWARE</td><td style="vertical-align:top;">:</td><td><div>Rocket 1.2.6</div></td></tr><tr><td style="font-weight:bold;vertical-align:top;">app_folders</td><td style="vertical-align:top;">:</td><td><div>set([&#x27;C:\\\\Users\\\\Bruno\\\\Downloads\\\\web2py\\\\applications\\\\avalweb3\\\\&#x27;, &#x27;C:\\\\Users\\\\Bruno\\\\Downloads\\\\web2py\\\\applications\\\\admin\\\\&#x27;, &#x27;C:\\\\Users\\\\Bruno\\\\Downloads\\\\web2py\\\\applications\\\\welcome\\\\&#x27;])</div></td></tr><tr><td style="font-weight:bold;vertical-align:top;">applications_parent</td><td style="vertical-align:top;">:</td><td><div>C:\\Users\\Bruno\\Downloads\\web2py</div></td></tr><tr><td style="font-weight:bold;vertical-align:top;">cmd_args</td><td style="vertical-align:top;">:</td><td><div><table></table></div></td></tr><tr><td style="font-weight:bold;vertical-align:top;">cmd_options</td><td style="vertical-align:top;">:</td><td><div>&lt;Values at 0x31d9af8: {&#x27;verbose&#x27;: False, &#x27;ip&#x27;: &#x27;127.0.0.1&#x27;, &#x27;debuglevel&#x27;: 30, &#x27;with_scheduler&#x27;: False, &#x27;shutdown_timeout&#x27;: 5, &#x27;taskbar&#x27;: False, &#x27;with_coverage&#x27;: False, &#x27;pid_filename&#x27;: &#x27;httpserver.pid&#x27;, &#x27;maxthreads&#x27;: None, &#x27;softcron&#x27;: False, &#x27;server_name&#x27;: &#x27;Bruno-PC&#x27;, &#x27;bpython&#x27;: False, &#x27;nogui&#x27;: False, &#x27;port&#x27;: 8000, &#x27;print_errors&#x27;: False, &#x27;extcron&#x27;: False, &#x27;runcron&#x27;: False, &#x27;run_system_tests&#x27;: False, &#x27;test&#x27;: None, &#x27;folder&#x27;: &#x27;C:\\\\Users\\\\Bruno\\\\Downloads\\\\web2py&#x27;, &#x27;config&#x27;: &#x27;&#x27;, &#x27;minthreads&#x27;: None, &#x27;shell&#x27;: None, &#x27;run&#x27;: &#x27;&#x27;, &#x27;log_filename&#x27;: &#x27;httpserver.log&#x27;, &#x27;profiler_dir&#x27;: None, &#x27;args&#x27;: [&#x27;&#x27;], &#x27;socket_timeout&#x27;: 5, &#x27;ssl_ca_certificate&#x27;: None, &#x27;scheduler&#x27;: None, &#x27;interfaces&#x27;: None, &#x27;ssl_private_key&#x27;: &#x27;&#x27;, &#x27;gae&#x27;: None, &#x27;password&#x27;: &#x27;******&#x27;, &#x27;request_queue_size&#x27;: 5, &#x27;ssl_certificate&#x27;: &#x27;&#x27;, &#x27;cronjob&#x27;: False, &#x27;numthreads&#x27;: None, &#x27;quiet&#x27;: False, &#x27;import_models&#x27;: False, &#x27;timeout&#x27;: 10, &#x27;plain&#x27;: False, &#x27;nobanner&#x27;: False}&gt;</div></td></tr><tr><td style="font-weight:bold;vertical-align:top;">content_length</td><td style="vertical-align:top;">:</td><td><div>386</div></td></tr><tr><td style="font-weight:bold;vertical-align:top;">content_type</td><td style="vertical-align:top;">:</td><td><div>multipart/form-data; boundary=----WebKitFormBoundaryL4fcFzqLLLWAanyx</div></td></tr><tr><td style="font-weight:bold;vertical-align:top;">db_sessions</td><td style="vertical-align:top;">:</td><td><div>set([])</div></td></tr><tr><td style="font-weight:bold;vertical-align:top;">debugging</td><td style="vertical-align:top;">:</td><td><div>False</div></td></tr><tr><td style="font-weight:bold;vertical-align:top;">gluon_parent</td><td style="vertical-align:top;">:</td><td><div>C:\\Users\\Bruno\\Downloads\\web2py</div></td></tr><tr><td style="font-weight:bold;vertical-align:top;">http_accept</td><td style="vertical-align:top;">:</td><td><div>text/html,application/xhtml+xml,application/xml;q=0.9,image/webp,image/apng,*/*;q=0.8</div></td></tr><tr><td style="font-weight:bold;vertical-align:top;">http_accept_encoding</td><td style="vertical-align:top;">:</td><td><div>gzip, deflate, br</div></td></tr><tr><td style="font-weight:bold;vertical-align:top;">http_accept_language</td><td style="vertical-align:top;">:</td><td><div>pt-BR,pt;q=0.9,en-US;q=0.8,en;q=0.7</div></td></tr><tr><td style="font-weight:bold;vertical-align:top;">http_cache_control</td><td style="vertical-align:top;">:</td><td><div>max-age=0</div></td></tr><tr><td style="font-weight:bold;vertical-align:top;">http_connection</td><td style="vertical-align:top;">:</td><td><div>keep-alive</div></td></tr><tr><td style="font-weight:bold;vertical-align:top;">http_content_length</td><td style="vertical-align:top;">:</td><td><div>386</div></td></tr><tr><td style="font-weight:bold;vertical-align:top;">http_content_type</td><td style="vertical-align:top;">:</td><td><div>multipart/form-data; boundary=----WebKitFormBoundaryL4fcFzqLLLWAanyx</div></td></tr><tr><td style="font-weight:bold;vertical-align:top;">http_cookie</td><td style="vertical-align:top;">:</td><td><div>session_id_welcome=127.0.0.1-d280b47c-b17c-435a-bbc4-d1e003233de9; session_id_admin=127.0.0.1-c962c8af-2d92-474d-a33d-8eb663d221bd; session_id_avalweb3=127.0.0.1-477ee33c-7220-4634-9fb6-ce55b68d60d3</div></td></tr><tr><td style="font-weight:bold;vertical-align:top;">http_host</td><td style="vertical-align:top;">:</td><td><div>127.0.0.1:8000</div></td></tr><tr><td style="font-weight:bold;vertical-align:top;">http_origin</td><td style="vertical-align:top;">:</td><td><div>http://127.0.0.1:8000</div></td></tr><tr><td style="font-weight:bold;vertical-align:top;">http_referer</td><td style="vertical-align:top;">:</td><td><div>http://127.0.0.1:8000/avalweb3/provas/provas_estatica</div></td></tr><tr><td style="font-weight:bold;vertical-align:top;">http_upgrade_insecure_requests</td><td style="vertical-align:top;">:</td><td><div>1</div></td></tr><tr><td style="font-weight:bold;vertical-align:top;">http_user_agent</td><td style="vertical-align:top;">:</td><td><div>Mozilla/5.0 (Windows NT 6.1; Win64; x64) AppleWebKit/537.36 (KHTML, like Gecko) Chrome/62.0.3202.94 Safari/537.36</div></td></tr><tr><td style="font-weight:bold;vertical-align:top;">is_jython</td><td style="vertical-align:top;">:</td><td><div>False</div></td></tr><tr><td style="font-weight:bold;vertical-align:top;">is_py2</td><td style="vertical-align:top;">:</td><td><div>True</div></td></tr><tr><td style="font-weight:bold;vertical-align:top;">is_pypy</td><td style="vertical-align:top;">:</td><td><div>False</div></td></tr><tr><td style="font-weight:bold;vertical-align:top;">is_source</td><td style="vertical-align:top;">:</td><td><div>False</div></td></tr><tr><td style="font-weight:bold;vertical-align:top;">local_hosts</td><td style="vertical-align:top;">:</td><td><div><table><tr><td><div>2804:431:b704:3f90:85c7:6bbb:13b4:1de8</div></td></tr><tr><td><div>192.168.1.32</div></td></tr><tr><td><div>fd9a:ca93:c921:1:e4e2:82de:72a9:21c6</div></td></tr><tr><td><div>Bruno-PC.home</div></td></tr><tr><td><div>::ffff:127.0.0.1</div></td></tr><tr><td><div>::1</div></td></tr><tr><td><div>fe80::85c7:6bbb:13b4:1de8%11</div></td></tr><tr><td><div>127.0.0.1</div></td></tr><tr><td><div>fd9a:ca93:c921:1:85c7:6bbb:13b4:1de8</div></td></tr><tr><td><div>Bruno-PC</div></td></tr><tr><td><div>2804:431:b704:3f90:e4e2:82de:72a9:21c6</div></td></tr></table></div></td></tr><tr><td style="font-weight:bold;vertical-align:top;">path_info</td><td style="vertical-align:top;">:</td><td><div>/avalweb3/provas/provas_estatica</div></td></tr><tr><td style="font-weight:bold;vertical-align:top;">query_string</td><td style="vertical-align:top;">:</td><td><div></div></td></tr><tr><td style="font-weight:bold;vertical-align:top;">remote_addr</td><td style="vertical-align:top;">:</td><td><div>127.0.0.1</div></td></tr><tr><td style="font-weight:bold;vertical-align:top;">remote_port</td><td style="vertical-align:top;">:</td><td><div>1808</div></td></tr><tr><td style="font-weight:bold;vertical-align:top;">request_method</td><td style="vertical-align:top;">:</td><td><div>POST</div></td></tr><tr><td style="font-weight:bold;vertical-align:top;">request_uri</td><td style="vertical-align:top;">:</td><td><div>/avalweb3/provas/provas_estatica</div></td></tr><tr><td style="font-weight:bold;vertical-align:top;">script_name</td><td style="vertical-align:top;">:</td><td><div></div></td></tr><tr><td style="font-weight:bold;vertical-align:top;">server_name</td><td style="vertical-align:top;">:</td><td><div>Bruno-PC</div></td></tr><tr><td style="font-weight:bold;vertical-align:top;">server_port</td><td style="vertical-align:top;">:</td><td><div>8000</div></td></tr><tr><td style="font-weight:bold;vertical-align:top;">server_protocol</td><td style="vertical-align:top;">:</td><td><div>HTTP/1.1</div></td></tr><tr><td style="font-weight:bold;vertical-align:top;">server_software</td><td style="vertical-align:top;">:</td><td><div>Rocket 1.2.6</div></td></tr><tr><td style="font-weight:bold;vertical-align:top;">web2py_path</td><td style="vertical-align:top;">:</td><td><div>C:\\Users\\Bruno\\Downloads\\web2py</div></td></tr><tr><td style="font-weight:bold;vertical-align:top;">web2py_version</td><td style="vertical-align:top;">:</td><td><div>2.15.4-stable+timestamp.2017.09.02.04.02.22</div></td></tr><tr><td style="font-weight:bold;vertical-align:top;">wsgi.errors</td><td style="vertical-align:top;">:</td><td><div>&lt;open file &#x27;&lt;stderr&gt;&#x27;, mode &#x27;w&#x27; at 0x01D4D0D0&gt;</div></td></tr><tr><td style="font-weight:bold;vertical-align:top;">wsgi.file_wrapper</td><td style="vertical-align:top;">:</td><td><div>&lt;class wsgiref.util.FileWrapper at 0x034E2AE8&gt;</div></td></tr><tr><td style="font-weight:bold;vertical-align:top;">wsgi.input</td><td style="vertical-align:top;">:</td><td><div>&lt;socket._fileobject object at 0x0488C0F0&gt;</div></td></tr><tr><td style="font-weight:bold;vertical-align:top;">wsgi.multiprocess</td><td style="vertical-align:top;">:</td><td><div>False</div></td></tr><tr><td style="font-weight:bold;vertical-align:top;">wsgi.multithread</td><td style="vertical-align:top;">:</td><td><div>True</div></td></tr><tr><td style="font-weight:bold;vertical-align:top;">wsgi.run_once</td><td style="vertical-align:top;">:</td><td><div>False</div></td></tr><tr><td style="font-weight:bold;vertical-align:top;">wsgi.url_scheme</td><td style="vertical-align:top;">:</td><td><div>http</div></td></tr><tr><td style="font-weight:bold;vertical-align:top;">wsgi.version</td><td style="vertical-align:top;">:</td><td><div><table><tr><td><div>1</div></td></tr><tr><td><div>0</div></td></tr></table></div></td></tr><tr><td style="font-weight:bold;vertical-align:top;">wsgi_errors</td><td style="vertical-align:top;">:</td><td><div>&lt;open file &#x27;&lt;stderr&gt;&#x27;, mode &#x27;w&#x27; at 0x01D4D0D0&gt;</div></td></tr><tr><td style="font-weight:bold;vertical-align:top;">wsgi_file_wrapper</td><td style="vertical-align:top;">:</td><td><div>&lt;class wsgiref.util.FileWrapper at 0x034E2AE8&gt;</div></td></tr><tr><td style="font-weight:bold;vertical-align:top;">wsgi_input</td><td style="vertical-align:top;">:</td><td><div>&lt;socket._fileobject object at 0x0488C0F0&gt;</div></td></tr><tr><td style="font-weight:bold;vertical-align:top;">wsgi_multiprocess</td><td style="vertical-align:top;">:</td><td><div>False</div></td></tr><tr><td style="font-weight:bold;vertical-align:top;">wsgi_multithread</td><td style="vertical-align:top;">:</td><td><div>True</div></td></tr><tr><td style="font-weight:bold;vertical-align:top;">wsgi_run_once</td><td style="vertical-align:top;">:</td><td><div>False</div></td></tr><tr><td style="font-weight:bold;vertical-align:top;">wsgi_url_scheme</td><td style="vertical-align:top;">:</td><td><div>http</div></td></tr><tr><td style="font-weight:bold;vertical-align:top;">wsgi_version</td><td style="vertical-align:top;">:</td><td><div><table><tr><td><div>1</div></td></tr><tr><td><div>0</div></td></tr></table></div></td></tr></table></div></td></tr><tr><td style="font-weight:bold;vertical-align:top;">extension</td><td style="vertical-align:top;">:</td><td><div>html</div></td></tr><tr><td style="font-weight:bold;vertical-align:top;">folder</td><td style="vertical-align:top;">:</td><td><div>C:\\Users\\Bruno\\Downloads\\web2py\\applications\\avalweb3\\</div></td></tr><tr><td style="font-weight:bold;vertical-align:top;">function</td><td style="vertical-align:top;">:</td><td><div>provas_estatica</div></td></tr><tr><td style="font-weight:bold;vertical-align:top;">global_settings</td><td style="vertical-align:top;">:</td><td><div><table><tr><td style="font-weight:bold;vertical-align:top;">app_folders</td><td style="vertical-align:top;">:</td><td><div>set([&#x27;C:\\\\Users\\\\Bruno\\\\Downloads\\\\web2py\\\\applications\\\\avalweb3\\\\&#x27;, &#x27;C:\\\\Users\\\\Bruno\\\\Downloads\\\\web2py\\\\applications\\\\admin\\\\&#x27;, &#x27;C:\\\\Users\\\\Bruno\\\\Downloads\\\\web2py\\\\applications\\\\welcome\\\\&#x27;])</div></td></tr><tr><td style="font-weight:bold;vertical-align:top;">applications_parent</td><td style="vertical-align:top;">:</td><td><div>C:\\Users\\Bruno\\Downloads\\web2py</div></td></tr><tr><td style="font-weight:bold;vertical-align:top;">cmd_args</td><td style="vertical-align:top;">:</td><td><div><table></table></div></td></tr><tr><td style="font-weight:bold;vertical-align:top;">cmd_options</td><td style="vertical-align:top;">:</td><td><div>&lt;Values at 0x31d9af8: {&#x27;verbose&#x27;: False, &#x27;ip&#x27;: &#x27;127.0.0.1&#x27;, &#x27;debuglevel&#x27;: 30, &#x27;with_scheduler&#x27;: False, &#x27;shutdown_timeout&#x27;: 5, &#x27;taskbar&#x27;: False, &#x27;with_coverage&#x27;: False, &#x27;pid_filename&#x27;: &#x27;httpserver.pid&#x27;, &#x27;maxthreads&#x27;: None, &#x27;softcron&#x27;: False, &#x27;server_name&#x27;: &#x27;Bruno-PC&#x27;, &#x27;bpython&#x27;: False, &#x27;nogui&#x27;: False, &#x27;port&#x27;: 8000, &#x27;print_errors&#x27;: False, &#x27;extcron&#x27;: False, &#x27;runcron&#x27;: False, &#x27;run_system_tests&#x27;: False, &#x27;test&#x27;: None, &#x27;folder&#x27;: &#x27;C:\\\\Users\\\\Bruno\\\\Downloads\\\\web2py&#x27;, &#x27;config&#x27;: &#x27;&#x27;, &#x27;minthreads&#x27;: None, &#x27;shell&#x27;: None, &#x27;run&#x27;: &#x27;&#x27;, &#x27;log_filename&#x27;: &#x27;httpserver.log&#x27;, &#x27;profiler_dir&#x27;: None, &#x27;args&#x27;: [&#x27;&#x27;], &#x27;socket_timeout&#x27;: 5, &#x27;ssl_ca_certificate&#x27;: None, &#x27;scheduler&#x27;: None, &#x27;interfaces&#x27;: None, &#x27;ssl_private_key&#x27;: &#x27;&#x27;, &#x27;gae&#x27;: None, &#x27;password&#x27;: &#x27;******&#x27;, &#x27;request_queue_size&#x27;: 5, &#x27;ssl_certificate&#x27;: &#x27;&#x27;, &#x27;cronjob&#x27;: False, &#x27;numthreads&#x27;: None, &#x27;quiet&#x27;: False, &#x27;import_models&#x27;: False, &#x27;timeout&#x27;: 10, &#x27;plain&#x27;: False, &#x27;nobanner&#x27;: False}&gt;</div></td></tr><tr><td style="font-weight:bold;vertical-align:top;">db_sessions</td><td style="vertical-align:top;">:</td><td><div>set([])</div></td></tr><tr><td style="font-weight:bold;vertical-align:top;">debugging</td><td style="vertical-align:top;">:</td><td><div>False</div></td></tr><tr><td style="font-weight:bold;vertical-align:top;">gluon_parent</td><td style="vertical-align:top;">:</td><td><div>C:\\Users\\Bruno\\Downloads\\web2py</div></td></tr><tr><td style="font-weight:bold;vertical-align:top;">is_jython</td><td style="vertical-align:top;">:</td><td><div>False</div></td></tr><tr><td style="font-weight:bold;vertical-align:top;">is_py2</td><td style="vertical-align:top;">:</td><td><div>True</div></td></tr><tr><td style="font-weight:bold;vertical-align:top;">is_pypy</td><td style="vertical-align:top;">:</td><td><div>False</div></td></tr><tr><td style="font-weight:bold;vertical-align:top;">is_source</td><td style="vertical-align:top;">:</td><td><div>False</div></td></tr><tr><td style="font-weight:bold;vertical-align:top;">local_hosts</td><td style="vertical-align:top;">:</td><td><div><table><tr><td><div>2804:431:b704:3f90:85c7:6bbb:13b4:1de8</div></td></tr><tr><td><div>192.168.1.32</div></td></tr><tr><td><div>fd9a:ca93:c921:1:e4e2:82de:72a9:21c6</div></td></tr><tr><td><div>Bruno-PC.home</div></td></tr><tr><td><div>::ffff:127.0.0.1</div></td></tr><tr><td><div>::1</div></td></tr><tr><td><div>fe80::85c7:6bbb:13b4:1de8%11</div></td></tr><tr><td><div>127.0.0.1</div></td></tr><tr><td><div>fd9a:ca93:c921:1:85c7:6bbb:13b4:1de8</div></td></tr><tr><td><div>Bruno-PC</div></td></tr><tr><td><div>2804:431:b704:3f90:e4e2:82de:72a9:21c6</div></td></tr></table></div></td></tr><tr><td style="font-weight:bold;vertical-align:top;">web2py_version</td><td style="vertical-align:top;">:</td><td><div>2.15.4-stable+timestamp.2017.09.02.04.02.22</div></td></tr></table></div></td></tr><tr><td style="font-weight:bold;vertical-align:top;">is_https</td><td style="vertical-align:top;">:</td><td><div>False</div></td></tr><tr><td style="font-weight:bold;vertical-align:top;">is_local</td><td style="vertical-align:top;">:</td><td><div>True</div></td></tr><tr><td style="font-weight:bold;vertical-align:top;">is_restful</td><td style="vertical-align:top;">:</td><td><div>False</div></td></tr><tr><td style="font-weight:bold;vertical-align:top;">is_scheduler</td><td style="vertical-align:top;">:</td><td><div>False</div></td></tr><tr><td style="font-weight:bold;vertical-align:top;">is_shell</td><td style="vertical-align:top;">:</td><td><div>False</div></td></tr><tr><td style="font-weight:bold;vertical-align:top;">now</td><td style="vertical-align:top;">:</td><td><div>datetime.datetime(2017, 11, 26, 17, 49, 39, 180000)</div></td></tr><tr><td style="font-weight:bold;vertical-align:top;">raw_args</td><td style="vertical-align:top;">:</td><td><div></div></td></tr><tr><td style="font-weight:bold;vertical-align:top;">raw_extension</td><td style="vertical-align:top;">:</td><td><div>None</div></td></tr><tr><td style="font-weight:bold;vertical-align:top;">url</td><td style="vertical-align:top;">:</td><td><div>/avalweb3/provas/provas_estatica</div></td></tr><tr><td style="font-weight:bold;vertical-align:top;">utcnow</td><td style="vertical-align:top;">:</td><td><div>datetime.datetime(2017, 11, 26, 19, 49, 39, 180000)</div></td></tr><tr><td style="font-weight:bold;vertical-align:top;">wsgi</td><td style="vertical-align:top;">:</td><td><div>&lt;gluon.main.LazyWSGI object at 0x04CE7F90&gt;</div></td></tr></table></div>'
tRp60
sS'frames'
p61
(lp62
(dp63
S'file'
p64
S'C:\\Users\\Bruno\\Downloads\\web2py\\gluon\\restricted.py'
p65
sS'dump'
p66
(dp67
S'environment'
p68
S"{'A': <class 'gluon.html.A'>, 'ANY_OF': <class 'gluon.validators.ANY_OF'>, 'ASSIGNJS': <function ASSIGNJS>, 'B': <class 'gluon.html.B'>, 'BEAUTIFY': <class 'gluon.html.BEAUTIFY'>, 'BODY': <class 'gluon.html.BODY'>, 'BR': <class 'gluon.html.BR'>, 'BUTTON': <class 'gluon.html.BUTTON'>, 'CAT': <class 'gluon.html.CAT'>, 'CENTER': <class 'gluon.html.CENTER'>, ...}"
p69
sS'ccode'
p70
S'<code object <module> at 04A89140, file "C:\\User...ications\\avalweb3\\controllers/provas.py", line 1>'
p71
ssS'lnum'
p72
I219
sS'lines'
p73
(dp74
I214
S'    if environment is None:'
p75
sI215
S'        environment = {}'
p76
sI216
S"    environment['__file__'] = layer"
p77
sI217
S"    environment['__name__'] = '__restricted__'"
p78
sI218
S'    try:'
p79
sI219
S'        exec(ccode, environment)'
p80
sI220
S'    except HTTP:'
p81
sI221
S'        raise'
p82
sI222
S'    except RestrictedError:'
p83
sI223
S'        # do not encapsulate (obfuscate) the original RestrictedError'
p84
ssS'call'
p85
S'(ccode=<code object <module> at 04A89140, file "C:\\User...ications\\avalweb3\\controllers/provas.py", line 1>, environment={\'A\': <class \'gluon.html.A\'>, \'ANY_OF\': <class \'gluon.validators.ANY_OF\'>, \'ASSIGNJS\': <function ASSIGNJS>, \'B\': <class \'gluon.html.B\'>, \'BEAUTIFY\': <class \'gluon.html.BEAUTIFY\'>, \'BODY\': <class \'gluon.html.BODY\'>, \'BR\': <class \'gluon.html.BR\'>, \'BUTTON\': <class \'gluon.html.BUTTON\'>, \'CAT\': <class \'gluon.html.CAT\'>, \'CENTER\': <class \'gluon.html.CENTER\'>, ...}, layer=r\'C:\\Users\\Bruno\\Downloads\\web2py\\applications\\avalweb3\\controllers/provas.py\', scode=<code object <module> at 04A89140, file "C:\\User...ications\\avalweb3\\controllers/provas.py", line 1>)'
p86
sS'func'
p87
S'restricted'
p88
sa(dp89
g64
S'C:\\Users\\Bruno\\Downloads\\web2py\\applications\\avalweb3\\controllers\\provas.py'
p90
sg66
(dp91
sg72
I44
sg73
(dp92
I34
S'\t\tuser_prof = row.user_prof'
p93
sI35
S'\t\tuser_aluno = session.user_aluno'
p94
sI36
S'\t\tcod_prova = provaId'
p95
sI37
S''
sI38
S"\t\tprova_upload_to_insert = {'user_prof':user_prof, 'user_aluno':user_aluno, 'nota':nota, 'cod_prova':cod_prova}"
p96
sI39
S'\t\tdb.provas_uploads.insert(**prova_upload_to_insert)'
p97
sI40
S''
sI41
S'\t\tresponse.flash = T(str(nota))'
p98
sI42
S''
sI43
S'\treturn dict(form=form)'
p99
ssg85
S'()'
p100
sg87
S'<module>'
p101
sa(dp102
g64
S'C:\\Users\\Bruno\\Downloads\\web2py\\gluon\\globals.py'
p103
sg66
(dp104
S'self'
p105
S'undefined'
p106
sS'f'
S'<function provas_estatica>'
p107
ssg72
I414
sg73
(dp108
I416
S'        self._custom_commit = None'
p109
sI417
S'        self._custom_rollback = None'
p110
sI418
S"        self.generic_patterns = ['*']"
p111
sI409
S"        self.flash = ''            # used by the default view layout"
p112
sI410
S'        self.meta = Storage()      # used by web2py_ajax.html'
p113
sI411
S'        self.menu = []             # used by the default view layout'
p114
sI412
S'        self.files = []            # used by web2py_ajax.html'
p115
sI413
S'        self._vars = None'
p116
sI414
S'        self._caller = lambda f: f()'
p117
sI415
S'        self._view_environment = None'
p118
ssg85
S'(f=<function provas_estatica>)'
p119
sg87
S'<lambda>'
p120
sa(dp121
g64
S'C:\\Users\\Bruno\\Downloads\\web2py\\applications\\avalweb3\\controllers\\provas.py'
p122
sg66
(dp123
sg72
I39
sg73
(dp124
I34
S'\t\tuser_prof = row.user_prof'
p125
sI35
S'\t\tuser_aluno = session.user_aluno'
p126
sI36
S'\t\tcod_prova = provaId'
p127
sI37
S''
sI38
S"\t\tprova_upload_to_insert = {'user_prof':user_prof, 'user_aluno':user_aluno, 'nota':nota, 'cod_prova':cod_prova}"
p128
sI39
S'\t\tdb.provas_uploads.insert(**prova_upload_to_insert)'
p129
sI40
S''
sI41
S'\t\tresponse.flash = T(str(nota))'
p130
sI42
S''
sI43
S'\treturn dict(form=form)'
p131
ssg85
S'()'
p132
sg87
S'provas_estatica'
p133
sa(dp134
g64
S'C:\\Users\\Bruno\\Downloads\\web2py\\gluon\\packages\\dal\\pydal\\objects.py'
p135
sg66
(dp136
S'self'
p137
S'<Table provas_uploads (id, user_prof, user_aluno, cod_prova, nota)>'
p138
sS'ret'
p139
g106
sS'row.op_values'
p140
S"<bound method OpRow.op_values of <OpRow {'user_p...o': 'bruno_galerani@hotmail.com', 'nota': 10.0}>>"
p141
sS'self._db._adapter'
p142
S'<pydal.adapters.mysql.MySQL object>'
p143
sS'self._db._adapter.insert'
p144
S'<bound method MySQL.insert of <pydal.adapters.mysql.MySQL object>>'
p145
sS'self._db'
p146
S'<DAL uri="mysql:******@localhost/avalweb">'
p147
sS'row'
p148
S"<OpRow {'user_prof': 1L, 'cod_prova': 1L, 'user_aluno': 'bruno_galerani@hotmail.com', 'nota': 10.0}>"
p149
ssg72
I734
sg73
(dp150
I736
S'            for f in self._after_insert:'
p151
sI737
S'                f(row, ret)'
p152
sI738
S'        return ret'
p153
sI729
S''
sI730
S'    def insert(self, **fields):'
p154
sI731
S'        row = self._fields_and_values_for_insert(fields)'
p155
sI732
S'        if any(f(row) for f in self._before_insert):'
p156
sI733
S'            return 0'
p157
sI734
S'        ret = self._db._adapter.insert(self, row.op_values())'
p158
sI735
S'        if ret and self._after_insert:'
p159
ssg85
S"(self=<Table provas_uploads (id, user_prof, user_aluno, cod_prova, nota)>, **fields={'cod_prova': 1L, 'nota': 10.0, 'user_aluno': 'bruno_galerani@hotmail.com', 'user_prof': 1L})"
p160
sg87
S'insert'
p161
sa(dp162
g64
S'C:\\Users\\Bruno\\Downloads\\web2py\\gluon\\packages\\dal\\pydal\\adapters\\base.py'
p163
sg66
(dp164
S'self._insert'
p165
S'<bound method MySQL._insert of <pydal.adapters.mysql.MySQL object>>'
p166
sS'query'
p167
g106
sS'self'
p168
S'<pydal.adapters.mysql.MySQL object>'
p169
sS'fields'
p170
S"[(<pydal.objects.Field object>, 1L), (<pydal.objects.Field object>, 1L), (<pydal.objects.Field object>, 'bruno_galerani@hotmail.com'), (<pydal.objects.Field object>, 10.0)]"
p171
sS'table'
p172
S'<Table provas_uploads (id, user_prof, user_aluno, cod_prova, nota)>'
p173
ssg72
I479
sg73
(dp174
I480
S'        try:'
p175
sI481
S'            self.execute(query)'
p176
sI482
S'        except:'
p177
sI483
S'            e = sys.exc_info()[1]'
p178
sI474
S"                ','.join(el[0]._rname for el in fields),"
p179
sI475
S"                ','.join(self.expand(v, f.type) for f, v in fields))"
p180
sI476
S'        return self.dialect.insert_empty(table._rname)'
p181
sI477
S''
sI478
S'    def insert(self, table, fields):'
p182
sI479
S'        query = self._insert(table, fields)'
p183
ssg85
S"(self=<pydal.adapters.mysql.MySQL object>, table=<Table provas_uploads (id, user_prof, user_aluno, cod_prova, nota)>, fields=[(<pydal.objects.Field object>, 1L), (<pydal.objects.Field object>, 1L), (<pydal.objects.Field object>, 'bruno_galerani@hotmail.com'), (<pydal.objects.Field object>, 10.0)])"
p184
sg87
g161
sa(dp185
g64
S'C:\\Users\\Bruno\\Downloads\\web2py\\gluon\\packages\\dal\\pydal\\adapters\\base.py'
p186
sg66
(dp187
S'fields'
p188
S"[(<pydal.objects.Field object>, 1L), (<pydal.objects.Field object>, 1L), (<pydal.objects.Field object>, 'bruno_galerani@hotmail.com'), (<pydal.objects.Field object>, 10.0)]"
p189
sS'self'
p190
S'<pydal.adapters.mysql.MySQL object>'
p191
sS'v'
g106
sS'f'
g106
sS'self.expand'
p192
S'<bound method MySQL._expand of <pydal.adapters.mysql.MySQL object>>'
p193
ssg72
I475
sg73
(dp194
I470
S'    def _insert(self, table, fields):'
p195
sI471
S'        if fields:'
p196
sI472
S'            return self.dialect.insert('
p197
sI473
S'                table._rname,'
p198
sI474
S"                ','.join(el[0]._rname for el in fields),"
p199
sI475
S"                ','.join(self.expand(v, f.type) for f, v in fields))"
p200
sI476
S'        return self.dialect.insert_empty(table._rname)'
p201
sI477
S''
sI478
S'    def insert(self, table, fields):'
p202
sI479
S'        query = self._insert(table, fields)'
p203
ssg85
S"(self=<pydal.adapters.mysql.MySQL object>, table=<Table provas_uploads (id, user_prof, user_aluno, cod_prova, nota)>, fields=[(<pydal.objects.Field object>, 1L), (<pydal.objects.Field object>, 1L), (<pydal.objects.Field object>, 'bruno_galerani@hotmail.com'), (<pydal.objects.Field object>, 10.0)])"
p204
sg87
S'_insert'
p205
sa(dp206
g64
S'C:\\Users\\Bruno\\Downloads\\web2py\\gluon\\packages\\dal\\pydal\\adapters\\base.py'
p207
sg66
(dp208
S'f'
S'<pydal.objects.Field object>'
p209
sS'fields'
p210
g106
sS'self'
p211
S'<pydal.adapters.mysql.MySQL object>'
p212
sS'f.type'
p213
S"'reference aluno'"
p214
sS'v'
S"'bruno_galerani@hotmail.com'"
p215
sS'self.expand'
p216
S'<bound method MySQL._expand of <pydal.adapters.mysql.MySQL object>>'
p217
ssg72
I475
sg73
(dp218
I470
S'    def _insert(self, table, fields):'
p219
sI471
S'        if fields:'
p220
sI472
S'            return self.dialect.insert('
p221
sI473
S'                table._rname,'
p222
sI474
S"                ','.join(el[0]._rname for el in fields),"
p223
sI475
S"                ','.join(self.expand(v, f.type) for f, v in fields))"
p224
sI476
S'        return self.dialect.insert_empty(table._rname)'
p225
sI477
S''
sI478
S'    def insert(self, table, fields):'
p226
sI479
S'        query = self._insert(table, fields)'
p227
ssg85
S"((f=<pydal.objects.Field object>, v='bruno_galerani@hotmail.com'))"
p228
sg87
S'<genexpr>'
p229
sa(dp230
g64
S'C:\\Users\\Bruno\\Downloads\\web2py\\gluon\\packages\\dal\\pydal\\adapters\\base.py'
p231
sg66
(dp232
S'self.represent'
p233
S'<bound method MySQL.represent of <pydal.adapters.mysql.MySQL object>>'
p234
sS'rv'
p235
g106
sS'expression'
p236
S"'bruno_galerani@hotmail.com'"
p237
sS'self'
p238
S'<pydal.adapters.mysql.MySQL object>'
p239
sS'field_type'
p240
S"'reference aluno'"
p241
ssg72
I444
sg73
(dp242
I448
S'        elif isinstance(expression, bool):'
p243
sI439
S'                    op = op[:-1]'
p244
sI440
S"                rv = '(%s)' % op"
p245
sI441
S'            else:'
p246
sI442
S'                rv = op()'
p247
sI443
S'        elif field_type:'
p248
sI444
S'            rv = self.represent(expression, field_type)'
p249
sI445
S'        elif isinstance(expression, (list, tuple)):'
p250
sI446
S"            rv = ','.join(self.represent(item, field_type)"
p251
sI447
S'                          for item in expression)'
p252
ssg85
S"(self=<pydal.adapters.mysql.MySQL object>, expression='bruno_galerani@hotmail.com', field_type='reference aluno', colnames=False, query_env={})"
p253
sg87
S'_expand'
p254
sa(dp255
g64
S'C:\\Users\\Bruno\\Downloads\\web2py\\gluon\\packages\\dal\\pydal\\adapters\\base.py'
p256
sg66
(dp257
S'field_type'
p258
S"'reference aluno'"
p259
sS'obj'
p260
S"'bruno_galerani@hotmail.com'"
p261
sS'self'
p262
S'<pydal.adapters.mysql.MySQL object>'
p263
sS'global SQLAdapter'
p264
S"<class 'pydal.adapters.base.SQLAdapter'>"
p265
sS').represent'
p266
S'<bound method MySQL.represent of <pydal.adapters.mysql.MySQL object>>'
p267
sS'builtinsuper'
p268
S"<type 'super'>"
p269
ssg72
I381
sg73
(dp270
I384
S'        return "\'%s\'" % obj.replace("\'", "\'\'")'
p271
sI385
S''
sI376
S"        self.execute('SELECT 1;')"
p272
sI377
S''
sI378
S'    def represent(self, obj, field_type):'
p273
sI379
S'        if isinstance(obj, (Expression, Field)):'
p274
sI380
S'            return str(obj)'
p275
sI381
S'        return super(SQLAdapter, self).represent(obj, field_type)'
p276
sI382
S''
sI383
S'    def adapt(self, obj):'
p277
ssg85
S"(self=<pydal.adapters.mysql.MySQL object>, obj='bruno_galerani@hotmail.com', field_type='reference aluno')"
p278
sg87
S'represent'
p279
sa(dp280
g64
S'C:\\Users\\Bruno\\Downloads\\web2py\\gluon\\packages\\dal\\pydal\\adapters\\base.py'
p281
sg66
(dp282
S'self.representer'
p283
S'<pydal.representers.mysql.MySQLRepresenter object>'
p284
sS'self'
p285
S'<pydal.adapters.mysql.MySQL object>'
p286
sS'field_type'
p287
S"'reference aluno'"
p288
sS'obj'
p289
S"'bruno_galerani@hotmail.com'"
p290
sS'self.representer.represent'
p291
S'<bound method MySQLRepresenter.represent of <pydal.representers.mysql.MySQLRepresenter object>>'
p292
ssg72
I335
sg73
(dp293
I330
S'        return value'
p294
sI331
S''
sI332
S'    def represent(self, obj, field_type):'
p295
sI333
S'        if isinstance(obj, CALLABLETYPES):'
p296
sI334
S'            obj = obj()'
p297
sI335
S'        return self.representer.represent(obj, field_type)'
p298
sI336
S''
sI337
S'    def _drop_table_cleanup(self, table):'
p299
sI338
S'        del self.db[table._tablename]'
p300
sI339
S'        del self.db.tables[self.db.tables.index(table._tablename)]'
p301
ssg85
S"(self=<pydal.adapters.mysql.MySQL object>, obj='bruno_galerani@hotmail.com', field_type='reference aluno')"
p302
sg87
g279
sa(dp303
g64
S'C:\\Users\\Bruno\\Downloads\\web2py\\gluon\\packages\\dal\\pydal\\representers\\__init__.py'
p304
sg66
(dp305
S'field_type'
p306
S"'reference aluno'"
p307
sS'rv'
p308
S"'bruno_galerani@hotmail.com'"
p309
sS'self'
p310
S'<pydal.representers.mysql.MySQLRepresenter object>'
p311
sS'self.get_representer_for_type'
p312
S'<bound method MySQLRepresenter.get_representer_f...ydal.representers.mysql.MySQLRepresenter object>>'
p313
ssg72
I251
sg73
(dp314
I246
S'        if pre_end:'
p315
sI247
S'            return value'
p316
sI248
S'        repr_type, rv = self.get_representer_for_instance(value)('
p317
sI249
S'            value, field_type)'
p318
sI250
S'        if repr_type:'
p319
sI251
S'            rv = self.get_representer_for_type(field_type)(rv, field_type)'
p320
sI252
S'        return rv'
p321
sI253
S''
sI254
S''
sI255
S'from .base import BaseRepresenter, SQLRepresenter, NoSQLRepresenter'
p322
ssg85
S"(self=<pydal.representers.mysql.MySQLRepresenter object>, value='bruno_galerani@hotmail.com', field_type='reference aluno')"
p323
sg87
g279
sa(dp324
g64
S'C:\\Users\\Bruno\\Downloads\\web2py\\gluon\\packages\\dal\\pydal\\representers\\__init__.py'
p325
sg66
(dp326
S'value'
p327
S"'bruno_galerani@hotmail.com'"
p328
sS'self'
p329
S'<pydal.representers.TReprMethodWrapper object>'
p330
sS'self.call'
p331
S'<bound method TReprMethodWrapper._call_with_extr...f <pydal.representers.TReprMethodWrapper object>>'
p332
sS'self.adapt'
p333
S'<bound method TReprMethodWrapper._no_adapt of <pydal.representers.TReprMethodWrapper object>>'
p334
sS'field_type'
p335
S"'reference aluno'"
p336
ssg72
I139
sg73
(dp337
I134
S''
sI135
S'    def _call(self, value, field_type):'
p338
sI136
S'        return self.inner_call(value)'
p339
sI137
S''
sI138
S'    def __call__(self, value, field_type):'
p340
sI139
S'        return self.adapt(self.call(value, field_type))'
p341
sI140
S''
sI141
S''
sI142
S'class IReprMethodWrapper(object):'
p342
sI143
S'    def __init__(self, representer, obj):'
p343
ssg85
S"(self=<pydal.representers.TReprMethodWrapper object>, value='bruno_galerani@hotmail.com', field_type='reference aluno')"
p344
sg87
S'__call__'
p345
sa(dp346
g64
S'C:\\Users\\Bruno\\Downloads\\web2py\\gluon\\packages\\dal\\pydal\\representers\\__init__.py'
p347
sg66
(dp348
S'self.inner_call'
p349
S'<bound method TReprMethodWrapper._inner_call of <pydal.representers.TReprMethodWrapper object>>'
p350
sS'self'
p351
S'<pydal.representers.TReprMethodWrapper object>'
p352
sS'extras'
p353
S"{'referenced': 'aluno'}"
p354
sS'value'
p355
S"'bruno_galerani@hotmail.com'"
p356
ssg72
I133
sg73
(dp357
I128
S'            value = value.encode(self.representer.adapter.db_codec)'
p358
sI129
S'        return self.obj.f(self.representer, value, **kwargs)'
p359
sI130
S''
sI131
S'    def _call_with_extras(self, value, field_type):'
p360
sI132
S'        extras = self.extra(self.representer, field_type)'
p361
sI133
S'        return self.inner_call(value, **extras)'
p362
sI134
S''
sI135
S'    def _call(self, value, field_type):'
p363
sI136
S'        return self.inner_call(value)'
p364
sI137
S''
ssg85
S"(self=<pydal.representers.TReprMethodWrapper object>, value='bruno_galerani@hotmail.com', field_type='reference aluno')"
p365
sg87
S'_call_with_extras'
p366
sa(dp367
g64
S'C:\\Users\\Bruno\\Downloads\\web2py\\gluon\\packages\\dal\\pydal\\representers\\__init__.py'
p368
sg66
(dp369
S'self.obj.f'
p370
S'<function _reference>'
p371
sS'self.obj'
p372
S'<pydal.representers.for_type object>'
p373
sS'self'
p374
S'<pydal.representers.TReprMethodWrapper object>'
p375
sS'value'
p376
S"'bruno_galerani@hotmail.com'"
p377
sS'self.representer'
p378
S'<pydal.representers.mysql.MySQLRepresenter object>'
p379
sS'kwargs'
p380
S"{'referenced': 'aluno'}"
p381
ssg72
I124
sg73
(dp382
I128
S'            value = value.encode(self.representer.adapter.db_codec)'
p383
sI119
S''
sI120
S'    def _no_adapt(self, value):'
p384
sI121
S'        return value'
p385
sI122
S''
sI123
S'    def _inner_call(self, value, **kwargs):'
p386
sI124
S'        return self.obj.f(self.representer, value, **kwargs)'
p387
sI125
S''
sI126
S'    def _inner_call_with_encode(self, value, **kwargs):'
p388
sI127
S'        if isinstance(value, unicode):'
p389
ssg85
S"(self=<pydal.representers.TReprMethodWrapper object>, value='bruno_galerani@hotmail.com', **kwargs={'referenced': 'aluno'})"
p390
sg87
S'_inner_call'
p391
sa(dp392
g64
S'C:\\Users\\Bruno\\Downloads\\web2py\\gluon\\packages\\dal\\pydal\\representers\\base.py'
p393
sg66
(dp394
S'builtinstr'
p395
S"<type 'str'>"
p396
sS'global long'
p397
S"<type 'long'>"
p398
sS'value'
p399
S"'bruno_galerani@hotmail.com'"
p400
ssg72
I141
sg73
(dp401
I136
S"        return {'referenced': field_type[9:].strip()}"
p402
sI137
S''
sI138
S"    @for_type('reference', adapt=False)"
p403
sI139
S'    def _reference(self, value, referenced):'
p404
sI140
S'        if referenced in self.adapter.db.tables:'
p405
sI141
S'            return str(long(value))'
p406
sI142
S"        p = referenced.partition('.')"
p407
sI143
S"        if p[2] != '':"
p408
sI144
S'            try:'
p409
sI145
S'                ftype = self.adapter.db[p[0]][p[2]].type'
p410
ssg85
S"(self=<pydal.representers.mysql.MySQLRepresenter object>, value='bruno_galerani@hotmail.com', referenced='aluno')"
p411
sg87
S'_reference'
p412
sasS'pyver'
p413
S'Python 2.7.9: C:\\Users\\Bruno\\Downloads\\web2py\\web2py.exe (prefix: C:\\Python27)'
p414
sS'session'
p415
g59
(S's:\x01\x00\x00<div><table><tr><td style="font-weight:bold;vertical-align:top;">estatica</td><td style="vertical-align:top;">:</td><td><div>1L</div></td></tr><tr><td style="font-weight:bold;vertical-align:top;">user_aluno</td><td style="vertical-align:top;">:</td><td><div>bruno_galerani@hotmail.com</div></td></tr></table></div>'
tRp416
sS'etype'
p417
S"<type 'exceptions.ValueError'>"
p418
sS'date'
p419
S'Sun Nov 26 17:49:39 2017'
p420
sS'response'
p421
g59
(S's\xd6\x18\x00\x00<div><table><tr><td style="font-weight:bold;vertical-align:top;">body</td><td style="vertical-align:top;">:</td><td><div>&lt;cStringIO.StringO object at 0x08CFD960&gt;</div></td></tr><tr><td style="font-weight:bold;vertical-align:top;">cookies</td><td style="vertical-align:top;">:</td><td><div><table><tr><td style="font-weight:bold;vertical-align:top;">session_id_avalweb3</td><td style="vertical-align:top;">:</td><td><div>127.0.0.1-477ee33c-7220-4634-9fb6-ce55b68d60d3<table><tr><td style="font-weight:bold;vertical-align:top;">comment</td><td style="vertical-align:top;">:</td><td><div></div></td></tr><tr><td style="font-weight:bold;vertical-align:top;">domain</td><td style="vertical-align:top;">:</td><td><div></div></td></tr><tr><td style="font-weight:bold;vertical-align:top;">expires</td><td style="vertical-align:top;">:</td><td><div></div></td></tr><tr><td style="font-weight:bold;vertical-align:top;">httponly</td><td style="vertical-align:top;">:</td><td><div></div></td></tr><tr><td style="font-weight:bold;vertical-align:top;">max-age</td><td style="vertical-align:top;">:</td><td><div></div></td></tr><tr><td style="font-weight:bold;vertical-align:top;">path</td><td style="vertical-align:top;">:</td><td><div>/</div></td></tr><tr><td style="font-weight:bold;vertical-align:top;">secure</td><td style="vertical-align:top;">:</td><td><div></div></td></tr><tr><td style="font-weight:bold;vertical-align:top;">version</td><td style="vertical-align:top;">:</td><td><div></div></td></tr></table></div></td></tr></table></div></td></tr><tr><td style="font-weight:bold;vertical-align:top;">delimiters</td><td style="vertical-align:top;">:</td><td><div><table><tr><td><div>{{</div></td></tr><tr><td><div>}}</div></td></tr></table></div></td></tr><tr><td style="font-weight:bold;vertical-align:top;">files</td><td style="vertical-align:top;">:</td><td><div><table></table></div></td></tr><tr><td style="font-weight:bold;vertical-align:top;">flash</td><td style="vertical-align:top;">:</td><td><div></div></td></tr><tr><td style="font-weight:bold;vertical-align:top;">form_label_separator</td><td style="vertical-align:top;">:</td><td><div>: </div></td></tr><tr><td style="font-weight:bold;vertical-align:top;">formstyle</td><td style="vertical-align:top;">:</td><td><div>table3cols</div></td></tr><tr><td style="font-weight:bold;vertical-align:top;">generic_patterns</td><td style="vertical-align:top;">:</td><td><div><table><tr><td><div>*</div></td></tr></table></div></td></tr><tr><td style="font-weight:bold;vertical-align:top;">headers</td><td style="vertical-align:top;">:</td><td><div><table><tr><td style="font-weight:bold;vertical-align:top;">X-Powered-By</td><td style="vertical-align:top;">:</td><td><div>web2py</div></td></tr></table></div></td></tr><tr><td style="font-weight:bold;vertical-align:top;">menu</td><td style="vertical-align:top;">:</td><td><div><table><tr><td><div><table><tr><td><div>Home</div></td></tr><tr><td><div>False</div></td></tr><tr><td><div>/avalweb3/default/index</div></td></tr></table></div></td></tr><tr><td><div><table><tr><td><div>Sair</div></td></tr><tr><td><div>False</div></td></tr><tr><td><div>/avalweb3/logout/logout</div></td></tr></table></div></td></tr></table></div></td></tr><tr><td style="font-weight:bold;vertical-align:top;">meta</td><td style="vertical-align:top;">:</td><td><div><table></table></div></td></tr><tr><td style="font-weight:bold;vertical-align:top;">models_to_run</td><td style="vertical-align:top;">:</td><td><div><table><tr><td><div>^\\w+\\.py$</div></td></tr><tr><td><div>^provas/\\w+\\.py$</div></td></tr><tr><td><div>^provas/provas_estatica/\\w+\\.py$</div></td></tr></table></div></td></tr><tr><td style="font-weight:bold;vertical-align:top;">postprocessing</td><td style="vertical-align:top;">:</td><td><div><table></table></div></td></tr><tr><td style="font-weight:bold;vertical-align:top;">session_client</td><td style="vertical-align:top;">:</td><td><div>127.0.0.1</div></td></tr><tr><td style="font-weight:bold;vertical-align:top;">session_cookie_compression_level</td><td style="vertical-align:top;">:</td><td><div>None</div></td></tr><tr><td style="font-weight:bold;vertical-align:top;">session_cookie_expires</td><td style="vertical-align:top;">:</td><td><div>None</div></td></tr><tr><td style="font-weight:bold;vertical-align:top;">session_data_name</td><td style="vertical-align:top;">:</td><td><div>session_data_avalweb3</div></td></tr><tr><td style="font-weight:bold;vertical-align:top;">session_file</td><td style="vertical-align:top;">:</td><td><div>&lt;open file &#x27;C:\\\\Users\\\\Bruno\\\\Downloads\\\\web2py\\\\applications\\\\avalweb3\\\\sessions\\\\1f8\\\\196\\\\127.0.0.1-477ee33c-7220-4634-9fb6-ce55b68d60d3&#x27;, mode &#x27;rb+&#x27; at 0x0485E860&gt;</div></td></tr><tr><td style="font-weight:bold;vertical-align:top;">session_filename</td><td style="vertical-align:top;">:</td><td><div>C:\\Users\\Bruno\\Downloads\\web2py\\applications\\avalweb3\\sessions\\127.0.0.1-477ee33c-7220-4634-9fb6-ce55b68d60d3</div></td></tr><tr><td style="font-weight:bold;vertical-align:top;">session_hash</td><td style="vertical-align:top;">:</td><td><div>bf364a1130c7d64cd14117df39d0a300</div></td></tr><tr><td style="font-weight:bold;vertical-align:top;">session_id</td><td style="vertical-align:top;">:</td><td><div>127.0.0.1-477ee33c-7220-4634-9fb6-ce55b68d60d3</div></td></tr><tr><td style="font-weight:bold;vertical-align:top;">session_id_name</td><td style="vertical-align:top;">:</td><td><div>session_id_avalweb3</div></td></tr><tr><td style="font-weight:bold;vertical-align:top;">session_locked</td><td style="vertical-align:top;">:</td><td><div>True</div></td></tr><tr><td style="font-weight:bold;vertical-align:top;">session_masterapp</td><td style="vertical-align:top;">:</td><td><div>avalweb3</div></td></tr><tr><td style="font-weight:bold;vertical-align:top;">session_new</td><td style="vertical-align:top;">:</td><td><div>False</div></td></tr><tr><td style="font-weight:bold;vertical-align:top;">session_storage_type</td><td style="vertical-align:top;">:</td><td><div>file</div></td></tr><tr><td style="font-weight:bold;vertical-align:top;">status</td><td style="vertical-align:top;">:</td><td><div>200</div></td></tr><tr><td style="font-weight:bold;vertical-align:top;">view</td><td style="vertical-align:top;">:</td><td><div>provas/provas_estatica.html</div></td></tr></table></div>'
tRp422
sS'locals'
p423
(dp424
S'self'
p425
S'<pydal.representers.mysql.MySQLRepresenter object>'
p426
sS'referenced'
p427
S"'aluno'"
p428
sS'value'
p429
S"'bruno_galerani@hotmail.com'"
p430
sssS'traceback'
p431
S'Traceback (most recent call last):\n  File "C:\\Users\\Bruno\\Downloads\\web2py\\gluon\\restricted.py", line 219, in restricted\n    exec(ccode, environment)\n  File "C:\\Users\\Bruno\\Downloads\\web2py\\applications\\avalweb3\\controllers/provas.py", line 44, in <module>\n  File "C:\\Users\\Bruno\\Downloads\\web2py\\gluon\\globals.py", line 414, in <lambda>\n    self._caller = lambda f: f()\n  File "C:\\Users\\Bruno\\Downloads\\web2py\\applications\\avalweb3\\controllers/provas.py", line 39, in provas_estatica\n    db.provas_uploads.insert(**prova_upload_to_insert)\n  File "C:\\Users\\Bruno\\Downloads\\web2py\\gluon\\packages\\dal\\pydal\\objects.py", line 734, in insert\n    ret = self._db._adapter.insert(self, row.op_values())\n  File "C:\\Users\\Bruno\\Downloads\\web2py\\gluon\\packages\\dal\\pydal\\adapters\\base.py", line 479, in insert\n    query = self._insert(table, fields)\n  File "C:\\Users\\Bruno\\Downloads\\web2py\\gluon\\packages\\dal\\pydal\\adapters\\base.py", line 475, in _insert\n    \',\'.join(self.expand(v, f.type) for f, v in fields))\n  File "C:\\Users\\Bruno\\Downloads\\web2py\\gluon\\packages\\dal\\pydal\\adapters\\base.py", line 475, in <genexpr>\n    \',\'.join(self.expand(v, f.type) for f, v in fields))\n  File "C:\\Users\\Bruno\\Downloads\\web2py\\gluon\\packages\\dal\\pydal\\adapters\\base.py", line 444, in _expand\n    rv = self.represent(expression, field_type)\n  File "C:\\Users\\Bruno\\Downloads\\web2py\\gluon\\packages\\dal\\pydal\\adapters\\base.py", line 381, in represent\n    return super(SQLAdapter, self).represent(obj, field_type)\n  File "C:\\Users\\Bruno\\Downloads\\web2py\\gluon\\packages\\dal\\pydal\\adapters\\base.py", line 335, in represent\n    return self.representer.represent(obj, field_type)\n  File "C:\\Users\\Bruno\\Downloads\\web2py\\gluon\\packages\\dal\\pydal\\representers\\__init__.py", line 251, in represent\n    rv = self.get_representer_for_type(field_type)(rv, field_type)\n  File "C:\\Users\\Bruno\\Downloads\\web2py\\gluon\\packages\\dal\\pydal\\representers\\__init__.py", line 139, in __call__\n    return self.adapt(self.call(value, field_type))\n  File "C:\\Users\\Bruno\\Downloads\\web2py\\gluon\\packages\\dal\\pydal\\representers\\__init__.py", line 133, in _call_with_extras\n    return self.inner_call(value, **extras)\n  File "C:\\Users\\Bruno\\Downloads\\web2py\\gluon\\packages\\dal\\pydal\\representers\\__init__.py", line 124, in _inner_call\n    return self.obj.f(self.representer, value, **kwargs)\n  File "C:\\Users\\Bruno\\Downloads\\web2py\\gluon\\packages\\dal\\pydal\\representers\\base.py", line 141, in _reference\n    return str(long(value))\nValueError: invalid literal for long() with base 10: \'bruno_galerani@hotmail.com\'\n'
p432
s.