(dp1
S'output'
p2
S'<class \'_mysql_exceptions.IntegrityError\'> (1062, "Duplicate entry \'bruno_galerani@hotmail.com\' for key \'user_prof\'")'
p3
sS'layer'
p4
S'C:\\Users\\Bruno\\Downloads\\web2py\\applications\\avalweb3\\controllers/cadastro.py'
p5
sS'code'
p6
S'<code object <module> at 04C59F98, file "C:\\Users\\Bruno\\Downloads\\web2py\\applications\\avalweb3\\controllers/cadastro.py", line 1>'
p7
sS'snapshot'
p8
(dp9
S'exception'
p10
(dp11
S'__module__'
p12
S"'_mysql_exceptions'"
p13
sS'__getslice__'
p14
S"<method-wrapper '__getslice__' of IntegrityError object>"
p15
sS'__str__'
p16
S"<method-wrapper '__str__' of IntegrityError object>"
p17
sS'__reduce__'
p18
S'<built-in method __reduce__ of IntegrityError object>'
p19
sS'__dict__'
p20
S'{}'
p21
sS'__sizeof__'
p22
S'<built-in method __sizeof__ of IntegrityError object>'
p23
sS'__weakref__'
p24
S'None'
p25
sS'message'
p26
S"''"
p27
sS'__init__'
p28
S"<method-wrapper '__init__' of IntegrityError object>"
p29
sS'__setattr__'
p30
S"<method-wrapper '__setattr__' of IntegrityError object>"
p31
sS'__reduce_ex__'
p32
S'<built-in method __reduce_ex__ of IntegrityError object>'
p33
sS'__new__'
p34
S'<built-in method __new__ of type object>'
p35
sS'__format__'
p36
S'<built-in method __format__ of IntegrityError object>'
p37
sS'__class__'
p38
S"<class '_mysql_exceptions.IntegrityError'>"
p39
sS'__doc__'
p40
S"'Exception raised when the relational integrity o... foreign key check fails, duplicate key,\\n    etc.'"
p41
sS'__getitem__'
p42
S"<method-wrapper '__getitem__' of IntegrityError object>"
p43
sS'__setstate__'
p44
S'<built-in method __setstate__ of IntegrityError object>'
p45
sS'__getattribute__'
p46
S"<method-wrapper '__getattribute__' of IntegrityError object>"
p47
sS'args'
p48
S'(1062, "Duplicate entry \'bruno_galerani@hotmail.com\' for key \'user_prof\'")'
p49
sS'__subclasshook__'
p50
S'<built-in method __subclasshook__ of type object>'
p51
sS'__unicode__'
p52
S'<built-in method __unicode__ of IntegrityError object>'
p53
sS'__delattr__'
p54
S"<method-wrapper '__delattr__' of IntegrityError object>"
p55
sS'__repr__'
p56
S"<method-wrapper '__repr__' of IntegrityError object>"
p57
sS'__hash__'
p58
S"<method-wrapper '__hash__' of IntegrityError object>"
p59
ssS'evalue'
p60
S'(1062, "Duplicate entry \'bruno_galerani@hotmail.com\' for key \'user_prof\'")'
p61
sS'request'
p62
cgluon.html
XML_unpickle
p63
(S's\xc7g\x00\x00<div><table><tr><td style="font-weight:bold;vertical-align:top;">ajax</td><td style="vertical-align:top;">:</td><td><div>False</div></td></tr><tr><td style="font-weight:bold;vertical-align:top;">application</td><td style="vertical-align:top;">:</td><td><div>avalweb3</div></td></tr><tr><td style="font-weight:bold;vertical-align:top;">args</td><td style="vertical-align:top;">:</td><td><div><table></table></div></td></tr><tr><td style="font-weight:bold;vertical-align:top;">cid</td><td style="vertical-align:top;">:</td><td><div>None</div></td></tr><tr><td style="font-weight:bold;vertical-align:top;">client</td><td style="vertical-align:top;">:</td><td><div>127.0.0.1</div></td></tr><tr><td style="font-weight:bold;vertical-align:top;">controller</td><td style="vertical-align:top;">:</td><td><div>cadastro</div></td></tr><tr><td style="font-weight:bold;vertical-align:top;">cookies</td><td style="vertical-align:top;">:</td><td><div><table><tr><td style="font-weight:bold;vertical-align:top;">session_id_admin</td><td style="vertical-align:top;">:</td><td><div>127.0.0.1-23b58efb-18bc-4e2b-bfc6-1a78e9693011<table><tr><td style="font-weight:bold;vertical-align:top;">comment</td><td style="vertical-align:top;">:</td><td><div></div></td></tr><tr><td style="font-weight:bold;vertical-align:top;">domain</td><td style="vertical-align:top;">:</td><td><div></div></td></tr><tr><td style="font-weight:bold;vertical-align:top;">expires</td><td style="vertical-align:top;">:</td><td><div></div></td></tr><tr><td style="font-weight:bold;vertical-align:top;">httponly</td><td style="vertical-align:top;">:</td><td><div></div></td></tr><tr><td style="font-weight:bold;vertical-align:top;">max-age</td><td style="vertical-align:top;">:</td><td><div></div></td></tr><tr><td style="font-weight:bold;vertical-align:top;">path</td><td style="vertical-align:top;">:</td><td><div></div></td></tr><tr><td style="font-weight:bold;vertical-align:top;">secure</td><td style="vertical-align:top;">:</td><td><div></div></td></tr><tr><td style="font-weight:bold;vertical-align:top;">version</td><td style="vertical-align:top;">:</td><td><div></div></td></tr></table></div></td></tr><tr><td style="font-weight:bold;vertical-align:top;">session_id_avalweb3</td><td style="vertical-align:top;">:</td><td><div>127.0.0.1-8137bee1-1fc0-4a02-a958-2f387ae7e7b1<table><tr><td style="font-weight:bold;vertical-align:top;">comment</td><td style="vertical-align:top;">:</td><td><div></div></td></tr><tr><td style="font-weight:bold;vertical-align:top;">domain</td><td style="vertical-align:top;">:</td><td><div></div></td></tr><tr><td style="font-weight:bold;vertical-align:top;">expires</td><td style="vertical-align:top;">:</td><td><div></div></td></tr><tr><td style="font-weight:bold;vertical-align:top;">httponly</td><td style="vertical-align:top;">:</td><td><div></div></td></tr><tr><td style="font-weight:bold;vertical-align:top;">max-age</td><td style="vertical-align:top;">:</td><td><div></div></td></tr><tr><td style="font-weight:bold;vertical-align:top;">path</td><td style="vertical-align:top;">:</td><td><div></div></td></tr><tr><td style="font-weight:bold;vertical-align:top;">secure</td><td style="vertical-align:top;">:</td><td><div></div></td></tr><tr><td style="font-weight:bold;vertical-align:top;">version</td><td style="vertical-align:top;">:</td><td><div></div></td></tr></table></div></td></tr><tr><td style="font-weight:bold;vertical-align:top;">session_id_welcome</td><td style="vertical-align:top;">:</td><td><div>127.0.0.1-f387f0e1-2ed3-4439-8c31-d0aa3af777d8<table><tr><td style="font-weight:bold;vertical-align:top;">comment</td><td style="vertical-align:top;">:</td><td><div></div></td></tr><tr><td style="font-weight:bold;vertical-align:top;">domain</td><td style="vertical-align:top;">:</td><td><div></div></td></tr><tr><td style="font-weight:bold;vertical-align:top;">expires</td><td style="vertical-align:top;">:</td><td><div></div></td></tr><tr><td style="font-weight:bold;vertical-align:top;">httponly</td><td style="vertical-align:top;">:</td><td><div></div></td></tr><tr><td style="font-weight:bold;vertical-align:top;">max-age</td><td style="vertical-align:top;">:</td><td><div></div></td></tr><tr><td style="font-weight:bold;vertical-align:top;">path</td><td style="vertical-align:top;">:</td><td><div></div></td></tr><tr><td style="font-weight:bold;vertical-align:top;">secure</td><td style="vertical-align:top;">:</td><td><div></div></td></tr><tr><td style="font-weight:bold;vertical-align:top;">version</td><td style="vertical-align:top;">:</td><td><div></div></td></tr></table></div></td></tr></table></div></td></tr><tr><td style="font-weight:bold;vertical-align:top;">env</td><td style="vertical-align:top;">:</td><td><div><table><tr><td style="font-weight:bold;vertical-align:top;">CONTENT_LENGTH</td><td style="vertical-align:top;">:</td><td><div>713</div></td></tr><tr><td style="font-weight:bold;vertical-align:top;">CONTENT_TYPE</td><td style="vertical-align:top;">:</td><td><div>multipart/form-data; boundary=----WebKitFormBoundary5uOAfOtTOLIBac7N</div></td></tr><tr><td style="font-weight:bold;vertical-align:top;">HTTP_ACCEPT</td><td style="vertical-align:top;">:</td><td><div>text/html,application/xhtml+xml,application/xml;q=0.9,image/webp,image/apng,*/*;q=0.8</div></td></tr><tr><td style="font-weight:bold;vertical-align:top;">HTTP_ACCEPT_ENCODING</td><td style="vertical-align:top;">:</td><td><div>gzip, deflate, br</div></td></tr><tr><td style="font-weight:bold;vertical-align:top;">HTTP_ACCEPT_LANGUAGE</td><td style="vertical-align:top;">:</td><td><div>pt-BR,pt;q=0.9,en-US;q=0.8,en;q=0.7</div></td></tr><tr><td style="font-weight:bold;vertical-align:top;">HTTP_CACHE_CONTROL</td><td style="vertical-align:top;">:</td><td><div>max-age=0</div></td></tr><tr><td style="font-weight:bold;vertical-align:top;">HTTP_CONNECTION</td><td style="vertical-align:top;">:</td><td><div>keep-alive</div></td></tr><tr><td style="font-weight:bold;vertical-align:top;">HTTP_CONTENT_LENGTH</td><td style="vertical-align:top;">:</td><td><div>713</div></td></tr><tr><td style="font-weight:bold;vertical-align:top;">HTTP_CONTENT_TYPE</td><td style="vertical-align:top;">:</td><td><div>multipart/form-data; boundary=----WebKitFormBoundary5uOAfOtTOLIBac7N</div></td></tr><tr><td style="font-weight:bold;vertical-align:top;">HTTP_COOKIE</td><td style="vertical-align:top;">:</td><td><div>session_id_welcome=127.0.0.1-f387f0e1-2ed3-4439-8c31-d0aa3af777d8; session_id_admin=127.0.0.1-23b58efb-18bc-4e2b-bfc6-1a78e9693011; session_id_avalweb3=127.0.0.1-8137bee1-1fc0-4a02-a958-2f387ae7e7b1</div></td></tr><tr><td style="font-weight:bold;vertical-align:top;">HTTP_HOST</td><td style="vertical-align:top;">:</td><td><div>127.0.0.1:8000</div></td></tr><tr><td style="font-weight:bold;vertical-align:top;">HTTP_ORIGIN</td><td style="vertical-align:top;">:</td><td><div>http://127.0.0.1:8000</div></td></tr><tr><td style="font-weight:bold;vertical-align:top;">HTTP_REFERER</td><td style="vertical-align:top;">:</td><td><div>http://127.0.0.1:8000/avalweb3/cadastro/professor</div></td></tr><tr><td style="font-weight:bold;vertical-align:top;">HTTP_UPGRADE_INSECURE_REQUESTS</td><td style="vertical-align:top;">:</td><td><div>1</div></td></tr><tr><td style="font-weight:bold;vertical-align:top;">HTTP_USER_AGENT</td><td style="vertical-align:top;">:</td><td><div>Mozilla/5.0 (Windows NT 6.1; Win64; x64) AppleWebKit/537.36 (KHTML, like Gecko) Chrome/62.0.3202.94 Safari/537.36</div></td></tr><tr><td style="font-weight:bold;vertical-align:top;">PATH_INFO</td><td style="vertical-align:top;">:</td><td><div>/avalweb3/cadastro/professor</div></td></tr><tr><td style="font-weight:bold;vertical-align:top;">QUERY_STRING</td><td style="vertical-align:top;">:</td><td><div></div></td></tr><tr><td style="font-weight:bold;vertical-align:top;">REMOTE_ADDR</td><td style="vertical-align:top;">:</td><td><div>127.0.0.1</div></td></tr><tr><td style="font-weight:bold;vertical-align:top;">REMOTE_PORT</td><td style="vertical-align:top;">:</td><td><div>5741</div></td></tr><tr><td style="font-weight:bold;vertical-align:top;">REQUEST_METHOD</td><td style="vertical-align:top;">:</td><td><div>POST</div></td></tr><tr><td style="font-weight:bold;vertical-align:top;">SCRIPT_NAME</td><td style="vertical-align:top;">:</td><td><div></div></td></tr><tr><td style="font-weight:bold;vertical-align:top;">SERVER_NAME</td><td style="vertical-align:top;">:</td><td><div>Bruno-PC</div></td></tr><tr><td style="font-weight:bold;vertical-align:top;">SERVER_PORT</td><td style="vertical-align:top;">:</td><td><div>8000</div></td></tr><tr><td style="font-weight:bold;vertical-align:top;">SERVER_PROTOCOL</td><td style="vertical-align:top;">:</td><td><div>HTTP/1.1</div></td></tr><tr><td style="font-weight:bold;vertical-align:top;">SERVER_SOFTWARE</td><td style="vertical-align:top;">:</td><td><div>Rocket 1.2.6</div></td></tr><tr><td style="font-weight:bold;vertical-align:top;">app_folders</td><td style="vertical-align:top;">:</td><td><div>set([&#x27;C:\\\\Users\\\\Bruno\\\\Downloads\\\\web2py\\\\applications\\\\avalweb3\\\\&#x27;, &#x27;C:\\\\Users\\\\Bruno\\\\Downloads\\\\web2py\\\\applications\\\\admin\\\\&#x27;, &#x27;C:\\\\Users\\\\Bruno\\\\Downloads\\\\web2py\\\\applications\\\\welcome\\\\&#x27;])</div></td></tr><tr><td style="font-weight:bold;vertical-align:top;">applications_parent</td><td style="vertical-align:top;">:</td><td><div>C:\\Users\\Bruno\\Downloads\\web2py</div></td></tr><tr><td style="font-weight:bold;vertical-align:top;">cmd_args</td><td style="vertical-align:top;">:</td><td><div><table></table></div></td></tr><tr><td style="font-weight:bold;vertical-align:top;">cmd_options</td><td style="vertical-align:top;">:</td><td><div>&lt;Values at 0x3189af8: {&#x27;verbose&#x27;: False, &#x27;ip&#x27;: &#x27;127.0.0.1&#x27;, &#x27;debuglevel&#x27;: 30, &#x27;with_scheduler&#x27;: False, &#x27;shutdown_timeout&#x27;: 5, &#x27;taskbar&#x27;: False, &#x27;with_coverage&#x27;: False, &#x27;pid_filename&#x27;: &#x27;httpserver.pid&#x27;, &#x27;maxthreads&#x27;: None, &#x27;softcron&#x27;: False, &#x27;server_name&#x27;: &#x27;Bruno-PC&#x27;, &#x27;bpython&#x27;: False, &#x27;nogui&#x27;: False, &#x27;port&#x27;: 8000, &#x27;print_errors&#x27;: False, &#x27;extcron&#x27;: False, &#x27;runcron&#x27;: False, &#x27;run_system_tests&#x27;: False, &#x27;test&#x27;: None, &#x27;folder&#x27;: &#x27;C:\\\\Users\\\\Bruno\\\\Downloads\\\\web2py&#x27;, &#x27;config&#x27;: &#x27;&#x27;, &#x27;minthreads&#x27;: None, &#x27;shell&#x27;: None, &#x27;run&#x27;: &#x27;&#x27;, &#x27;log_filename&#x27;: &#x27;httpserver.log&#x27;, &#x27;profiler_dir&#x27;: None, &#x27;args&#x27;: [&#x27;&#x27;], &#x27;socket_timeout&#x27;: 5, &#x27;ssl_ca_certificate&#x27;: None, &#x27;scheduler&#x27;: None, &#x27;interfaces&#x27;: None, &#x27;ssl_private_key&#x27;: &#x27;&#x27;, &#x27;gae&#x27;: None, &#x27;password&#x27;: &#x27;******&#x27;, &#x27;request_queue_size&#x27;: 5, &#x27;ssl_certificate&#x27;: &#x27;&#x27;, &#x27;cronjob&#x27;: False, &#x27;numthreads&#x27;: None, &#x27;quiet&#x27;: False, &#x27;import_models&#x27;: False, &#x27;timeout&#x27;: 10, &#x27;plain&#x27;: False, &#x27;nobanner&#x27;: False}&gt;</div></td></tr><tr><td style="font-weight:bold;vertical-align:top;">content_length</td><td style="vertical-align:top;">:</td><td><div>713</div></td></tr><tr><td style="font-weight:bold;vertical-align:top;">content_type</td><td style="vertical-align:top;">:</td><td><div>multipart/form-data; boundary=----WebKitFormBoundary5uOAfOtTOLIBac7N</div></td></tr><tr><td style="font-weight:bold;vertical-align:top;">db_sessions</td><td style="vertical-align:top;">:</td><td><div>set([])</div></td></tr><tr><td style="font-weight:bold;vertical-align:top;">debugging</td><td style="vertical-align:top;">:</td><td><div>False</div></td></tr><tr><td style="font-weight:bold;vertical-align:top;">gluon_parent</td><td style="vertical-align:top;">:</td><td><div>C:\\Users\\Bruno\\Downloads\\web2py</div></td></tr><tr><td style="font-weight:bold;vertical-align:top;">http_accept</td><td style="vertical-align:top;">:</td><td><div>text/html,application/xhtml+xml,application/xml;q=0.9,image/webp,image/apng,*/*;q=0.8</div></td></tr><tr><td style="font-weight:bold;vertical-align:top;">http_accept_encoding</td><td style="vertical-align:top;">:</td><td><div>gzip, deflate, br</div></td></tr><tr><td style="font-weight:bold;vertical-align:top;">http_accept_language</td><td style="vertical-align:top;">:</td><td><div>pt-BR,pt;q=0.9,en-US;q=0.8,en;q=0.7</div></td></tr><tr><td style="font-weight:bold;vertical-align:top;">http_cache_control</td><td style="vertical-align:top;">:</td><td><div>max-age=0</div></td></tr><tr><td style="font-weight:bold;vertical-align:top;">http_connection</td><td style="vertical-align:top;">:</td><td><div>keep-alive</div></td></tr><tr><td style="font-weight:bold;vertical-align:top;">http_content_length</td><td style="vertical-align:top;">:</td><td><div>713</div></td></tr><tr><td style="font-weight:bold;vertical-align:top;">http_content_type</td><td style="vertical-align:top;">:</td><td><div>multipart/form-data; boundary=----WebKitFormBoundary5uOAfOtTOLIBac7N</div></td></tr><tr><td style="font-weight:bold;vertical-align:top;">http_cookie</td><td style="vertical-align:top;">:</td><td><div>session_id_welcome=127.0.0.1-f387f0e1-2ed3-4439-8c31-d0aa3af777d8; session_id_admin=127.0.0.1-23b58efb-18bc-4e2b-bfc6-1a78e9693011; session_id_avalweb3=127.0.0.1-8137bee1-1fc0-4a02-a958-2f387ae7e7b1</div></td></tr><tr><td style="font-weight:bold;vertical-align:top;">http_host</td><td style="vertical-align:top;">:</td><td><div>127.0.0.1:8000</div></td></tr><tr><td style="font-weight:bold;vertical-align:top;">http_origin</td><td style="vertical-align:top;">:</td><td><div>http://127.0.0.1:8000</div></td></tr><tr><td style="font-weight:bold;vertical-align:top;">http_referer</td><td style="vertical-align:top;">:</td><td><div>http://127.0.0.1:8000/avalweb3/cadastro/professor</div></td></tr><tr><td style="font-weight:bold;vertical-align:top;">http_upgrade_insecure_requests</td><td style="vertical-align:top;">:</td><td><div>1</div></td></tr><tr><td style="font-weight:bold;vertical-align:top;">http_user_agent</td><td style="vertical-align:top;">:</td><td><div>Mozilla/5.0 (Windows NT 6.1; Win64; x64) AppleWebKit/537.36 (KHTML, like Gecko) Chrome/62.0.3202.94 Safari/537.36</div></td></tr><tr><td style="font-weight:bold;vertical-align:top;">is_jython</td><td style="vertical-align:top;">:</td><td><div>False</div></td></tr><tr><td style="font-weight:bold;vertical-align:top;">is_py2</td><td style="vertical-align:top;">:</td><td><div>True</div></td></tr><tr><td style="font-weight:bold;vertical-align:top;">is_pypy</td><td style="vertical-align:top;">:</td><td><div>False</div></td></tr><tr><td style="font-weight:bold;vertical-align:top;">is_source</td><td style="vertical-align:top;">:</td><td><div>False</div></td></tr><tr><td style="font-weight:bold;vertical-align:top;">local_hosts</td><td style="vertical-align:top;">:</td><td><div><table><tr><td><div>2804:431:b704:3f90:85c7:6bbb:13b4:1de8</div></td></tr><tr><td><div>192.168.1.32</div></td></tr><tr><td><div>fd9a:ca93:c921:1:746f:dac8:b73f:1b7c</div></td></tr><tr><td><div>Bruno-PC.home</div></td></tr><tr><td><div>::ffff:127.0.0.1</div></td></tr><tr><td><div>::1</div></td></tr><tr><td><div>fe80::85c7:6bbb:13b4:1de8%11</div></td></tr><tr><td><div>127.0.0.1</div></td></tr><tr><td><div>fd9a:ca93:c921:1:85c7:6bbb:13b4:1de8</div></td></tr><tr><td><div>Bruno-PC</div></td></tr><tr><td><div>2804:431:b704:3f90:746f:dac8:b73f:1b7c</div></td></tr></table></div></td></tr><tr><td style="font-weight:bold;vertical-align:top;">path_info</td><td style="vertical-align:top;">:</td><td><div>/avalweb3/cadastro/professor</div></td></tr><tr><td style="font-weight:bold;vertical-align:top;">query_string</td><td style="vertical-align:top;">:</td><td><div></div></td></tr><tr><td style="font-weight:bold;vertical-align:top;">remote_addr</td><td style="vertical-align:top;">:</td><td><div>127.0.0.1</div></td></tr><tr><td style="font-weight:bold;vertical-align:top;">remote_port</td><td style="vertical-align:top;">:</td><td><div>5741</div></td></tr><tr><td style="font-weight:bold;vertical-align:top;">request_method</td><td style="vertical-align:top;">:</td><td><div>POST</div></td></tr><tr><td style="font-weight:bold;vertical-align:top;">request_uri</td><td style="vertical-align:top;">:</td><td><div>/avalweb3/cadastro/professor</div></td></tr><tr><td style="font-weight:bold;vertical-align:top;">script_name</td><td style="vertical-align:top;">:</td><td><div></div></td></tr><tr><td style="font-weight:bold;vertical-align:top;">server_name</td><td style="vertical-align:top;">:</td><td><div>Bruno-PC</div></td></tr><tr><td style="font-weight:bold;vertical-align:top;">server_port</td><td style="vertical-align:top;">:</td><td><div>8000</div></td></tr><tr><td style="font-weight:bold;vertical-align:top;">server_protocol</td><td style="vertical-align:top;">:</td><td><div>HTTP/1.1</div></td></tr><tr><td style="font-weight:bold;vertical-align:top;">server_software</td><td style="vertical-align:top;">:</td><td><div>Rocket 1.2.6</div></td></tr><tr><td style="font-weight:bold;vertical-align:top;">web2py_path</td><td style="vertical-align:top;">:</td><td><div>C:\\Users\\Bruno\\Downloads\\web2py</div></td></tr><tr><td style="font-weight:bold;vertical-align:top;">web2py_version</td><td style="vertical-align:top;">:</td><td><div>2.15.4-stable+timestamp.2017.09.02.04.02.22</div></td></tr><tr><td style="font-weight:bold;vertical-align:top;">wsgi.errors</td><td style="vertical-align:top;">:</td><td><div>&lt;open file &#x27;&lt;stderr&gt;&#x27;, mode &#x27;w&#x27; at 0x005DD0D0&gt;</div></td></tr><tr><td style="font-weight:bold;vertical-align:top;">wsgi.file_wrapper</td><td style="vertical-align:top;">:</td><td><div>&lt;class wsgiref.util.FileWrapper at 0x03492AE8&gt;</div></td></tr><tr><td style="font-weight:bold;vertical-align:top;">wsgi.input</td><td style="vertical-align:top;">:</td><td><div>&lt;socket._fileobject object at 0x04163A30&gt;</div></td></tr><tr><td style="font-weight:bold;vertical-align:top;">wsgi.multiprocess</td><td style="vertical-align:top;">:</td><td><div>False</div></td></tr><tr><td style="font-weight:bold;vertical-align:top;">wsgi.multithread</td><td style="vertical-align:top;">:</td><td><div>True</div></td></tr><tr><td style="font-weight:bold;vertical-align:top;">wsgi.run_once</td><td style="vertical-align:top;">:</td><td><div>False</div></td></tr><tr><td style="font-weight:bold;vertical-align:top;">wsgi.url_scheme</td><td style="vertical-align:top;">:</td><td><div>http</div></td></tr><tr><td style="font-weight:bold;vertical-align:top;">wsgi.version</td><td style="vertical-align:top;">:</td><td><div><table><tr><td><div>1</div></td></tr><tr><td><div>0</div></td></tr></table></div></td></tr><tr><td style="font-weight:bold;vertical-align:top;">wsgi_errors</td><td style="vertical-align:top;">:</td><td><div>&lt;open file &#x27;&lt;stderr&gt;&#x27;, mode &#x27;w&#x27; at 0x005DD0D0&gt;</div></td></tr><tr><td style="font-weight:bold;vertical-align:top;">wsgi_file_wrapper</td><td style="vertical-align:top;">:</td><td><div>&lt;class wsgiref.util.FileWrapper at 0x03492AE8&gt;</div></td></tr><tr><td style="font-weight:bold;vertical-align:top;">wsgi_input</td><td style="vertical-align:top;">:</td><td><div>&lt;socket._fileobject object at 0x04163A30&gt;</div></td></tr><tr><td style="font-weight:bold;vertical-align:top;">wsgi_multiprocess</td><td style="vertical-align:top;">:</td><td><div>False</div></td></tr><tr><td style="font-weight:bold;vertical-align:top;">wsgi_multithread</td><td style="vertical-align:top;">:</td><td><div>True</div></td></tr><tr><td style="font-weight:bold;vertical-align:top;">wsgi_run_once</td><td style="vertical-align:top;">:</td><td><div>False</div></td></tr><tr><td style="font-weight:bold;vertical-align:top;">wsgi_url_scheme</td><td style="vertical-align:top;">:</td><td><div>http</div></td></tr><tr><td style="font-weight:bold;vertical-align:top;">wsgi_version</td><td style="vertical-align:top;">:</td><td><div><table><tr><td><div>1</div></td></tr><tr><td><div>0</div></td></tr></table></div></td></tr></table></div></td></tr><tr><td style="font-weight:bold;vertical-align:top;">extension</td><td style="vertical-align:top;">:</td><td><div>html</div></td></tr><tr><td style="font-weight:bold;vertical-align:top;">folder</td><td style="vertical-align:top;">:</td><td><div>C:\\Users\\Bruno\\Downloads\\web2py\\applications\\avalweb3\\</div></td></tr><tr><td style="font-weight:bold;vertical-align:top;">function</td><td style="vertical-align:top;">:</td><td><div>professor</div></td></tr><tr><td style="font-weight:bold;vertical-align:top;">global_settings</td><td style="vertical-align:top;">:</td><td><div><table><tr><td style="font-weight:bold;vertical-align:top;">app_folders</td><td style="vertical-align:top;">:</td><td><div>set([&#x27;C:\\\\Users\\\\Bruno\\\\Downloads\\\\web2py\\\\applications\\\\avalweb3\\\\&#x27;, &#x27;C:\\\\Users\\\\Bruno\\\\Downloads\\\\web2py\\\\applications\\\\admin\\\\&#x27;, &#x27;C:\\\\Users\\\\Bruno\\\\Downloads\\\\web2py\\\\applications\\\\welcome\\\\&#x27;])</div></td></tr><tr><td style="font-weight:bold;vertical-align:top;">applications_parent</td><td style="vertical-align:top;">:</td><td><div>C:\\Users\\Bruno\\Downloads\\web2py</div></td></tr><tr><td style="font-weight:bold;vertical-align:top;">cmd_args</td><td style="vertical-align:top;">:</td><td><div><table></table></div></td></tr><tr><td style="font-weight:bold;vertical-align:top;">cmd_options</td><td style="vertical-align:top;">:</td><td><div>&lt;Values at 0x3189af8: {&#x27;verbose&#x27;: False, &#x27;ip&#x27;: &#x27;127.0.0.1&#x27;, &#x27;debuglevel&#x27;: 30, &#x27;with_scheduler&#x27;: False, &#x27;shutdown_timeout&#x27;: 5, &#x27;taskbar&#x27;: False, &#x27;with_coverage&#x27;: False, &#x27;pid_filename&#x27;: &#x27;httpserver.pid&#x27;, &#x27;maxthreads&#x27;: None, &#x27;softcron&#x27;: False, &#x27;server_name&#x27;: &#x27;Bruno-PC&#x27;, &#x27;bpython&#x27;: False, &#x27;nogui&#x27;: False, &#x27;port&#x27;: 8000, &#x27;print_errors&#x27;: False, &#x27;extcron&#x27;: False, &#x27;runcron&#x27;: False, &#x27;run_system_tests&#x27;: False, &#x27;test&#x27;: None, &#x27;folder&#x27;: &#x27;C:\\\\Users\\\\Bruno\\\\Downloads\\\\web2py&#x27;, &#x27;config&#x27;: &#x27;&#x27;, &#x27;minthreads&#x27;: None, &#x27;shell&#x27;: None, &#x27;run&#x27;: &#x27;&#x27;, &#x27;log_filename&#x27;: &#x27;httpserver.log&#x27;, &#x27;profiler_dir&#x27;: None, &#x27;args&#x27;: [&#x27;&#x27;], &#x27;socket_timeout&#x27;: 5, &#x27;ssl_ca_certificate&#x27;: None, &#x27;scheduler&#x27;: None, &#x27;interfaces&#x27;: None, &#x27;ssl_private_key&#x27;: &#x27;&#x27;, &#x27;gae&#x27;: None, &#x27;password&#x27;: &#x27;******&#x27;, &#x27;request_queue_size&#x27;: 5, &#x27;ssl_certificate&#x27;: &#x27;&#x27;, &#x27;cronjob&#x27;: False, &#x27;numthreads&#x27;: None, &#x27;quiet&#x27;: False, &#x27;import_models&#x27;: False, &#x27;timeout&#x27;: 10, &#x27;plain&#x27;: False, &#x27;nobanner&#x27;: False}&gt;</div></td></tr><tr><td style="font-weight:bold;vertical-align:top;">db_sessions</td><td style="vertical-align:top;">:</td><td><div>set([])</div></td></tr><tr><td style="font-weight:bold;vertical-align:top;">debugging</td><td style="vertical-align:top;">:</td><td><div>False</div></td></tr><tr><td style="font-weight:bold;vertical-align:top;">gluon_parent</td><td style="vertical-align:top;">:</td><td><div>C:\\Users\\Bruno\\Downloads\\web2py</div></td></tr><tr><td style="font-weight:bold;vertical-align:top;">is_jython</td><td style="vertical-align:top;">:</td><td><div>False</div></td></tr><tr><td style="font-weight:bold;vertical-align:top;">is_py2</td><td style="vertical-align:top;">:</td><td><div>True</div></td></tr><tr><td style="font-weight:bold;vertical-align:top;">is_pypy</td><td style="vertical-align:top;">:</td><td><div>False</div></td></tr><tr><td style="font-weight:bold;vertical-align:top;">is_source</td><td style="vertical-align:top;">:</td><td><div>False</div></td></tr><tr><td style="font-weight:bold;vertical-align:top;">local_hosts</td><td style="vertical-align:top;">:</td><td><div><table><tr><td><div>2804:431:b704:3f90:85c7:6bbb:13b4:1de8</div></td></tr><tr><td><div>192.168.1.32</div></td></tr><tr><td><div>fd9a:ca93:c921:1:746f:dac8:b73f:1b7c</div></td></tr><tr><td><div>Bruno-PC.home</div></td></tr><tr><td><div>::ffff:127.0.0.1</div></td></tr><tr><td><div>::1</div></td></tr><tr><td><div>fe80::85c7:6bbb:13b4:1de8%11</div></td></tr><tr><td><div>127.0.0.1</div></td></tr><tr><td><div>fd9a:ca93:c921:1:85c7:6bbb:13b4:1de8</div></td></tr><tr><td><div>Bruno-PC</div></td></tr><tr><td><div>2804:431:b704:3f90:746f:dac8:b73f:1b7c</div></td></tr></table></div></td></tr><tr><td style="font-weight:bold;vertical-align:top;">web2py_version</td><td style="vertical-align:top;">:</td><td><div>2.15.4-stable+timestamp.2017.09.02.04.02.22</div></td></tr></table></div></td></tr><tr><td style="font-weight:bold;vertical-align:top;">is_https</td><td style="vertical-align:top;">:</td><td><div>False</div></td></tr><tr><td style="font-weight:bold;vertical-align:top;">is_local</td><td style="vertical-align:top;">:</td><td><div>True</div></td></tr><tr><td style="font-weight:bold;vertical-align:top;">is_restful</td><td style="vertical-align:top;">:</td><td><div>False</div></td></tr><tr><td style="font-weight:bold;vertical-align:top;">is_scheduler</td><td style="vertical-align:top;">:</td><td><div>False</div></td></tr><tr><td style="font-weight:bold;vertical-align:top;">is_shell</td><td style="vertical-align:top;">:</td><td><div>False</div></td></tr><tr><td style="font-weight:bold;vertical-align:top;">now</td><td style="vertical-align:top;">:</td><td><div>datetime.datetime(2017, 11, 25, 14, 39, 35, 854000)</div></td></tr><tr><td style="font-weight:bold;vertical-align:top;">raw_args</td><td style="vertical-align:top;">:</td><td><div></div></td></tr><tr><td style="font-weight:bold;vertical-align:top;">raw_extension</td><td style="vertical-align:top;">:</td><td><div>None</div></td></tr><tr><td style="font-weight:bold;vertical-align:top;">url</td><td style="vertical-align:top;">:</td><td><div>/avalweb3/cadastro/professor</div></td></tr><tr><td style="font-weight:bold;vertical-align:top;">utcnow</td><td style="vertical-align:top;">:</td><td><div>datetime.datetime(2017, 11, 25, 16, 39, 35, 854000)</div></td></tr><tr><td style="font-weight:bold;vertical-align:top;">wsgi</td><td style="vertical-align:top;">:</td><td><div>&lt;gluon.main.LazyWSGI object at 0x0474AEB0&gt;</div></td></tr></table></div>'
tRp64
sS'frames'
p65
(lp66
(dp67
S'file'
p68
S'C:\\Users\\Bruno\\Downloads\\web2py\\gluon\\restricted.py'
p69
sS'dump'
p70
(dp71
S'environment'
p72
S"{'A': <class 'gluon.html.A'>, 'ANY_OF': <class 'gluon.validators.ANY_OF'>, 'ASSIGNJS': <function ASSIGNJS>, 'B': <class 'gluon.html.B'>, 'BEAUTIFY': <class 'gluon.html.BEAUTIFY'>, 'BODY': <class 'gluon.html.BODY'>, 'BR': <class 'gluon.html.BR'>, 'BUTTON': <class 'gluon.html.BUTTON'>, 'CAT': <class 'gluon.html.CAT'>, 'CENTER': <class 'gluon.html.CENTER'>, ...}"
p73
sS'ccode'
p74
S'<code object <module> at 04C59F98, file "C:\\User...ations\\avalweb3\\controllers/cadastro.py", line 1>'
p75
ssS'lnum'
p76
I219
sS'lines'
p77
(dp78
I214
S'    if environment is None:'
p79
sI215
S'        environment = {}'
p80
sI216
S"    environment['__file__'] = layer"
p81
sI217
S"    environment['__name__'] = '__restricted__'"
p82
sI218
S'    try:'
p83
sI219
S'        exec(ccode, environment)'
p84
sI220
S'    except HTTP:'
p85
sI221
S'        raise'
p86
sI222
S'    except RestrictedError:'
p87
sI223
S'        # do not encapsulate (obfuscate) the original RestrictedError'
p88
ssS'call'
p89
S'(ccode=<code object <module> at 04C59F98, file "C:\\User...ations\\avalweb3\\controllers/cadastro.py", line 1>, environment={\'A\': <class \'gluon.html.A\'>, \'ANY_OF\': <class \'gluon.validators.ANY_OF\'>, \'ASSIGNJS\': <function ASSIGNJS>, \'B\': <class \'gluon.html.B\'>, \'BEAUTIFY\': <class \'gluon.html.BEAUTIFY\'>, \'BODY\': <class \'gluon.html.BODY\'>, \'BR\': <class \'gluon.html.BR\'>, \'BUTTON\': <class \'gluon.html.BUTTON\'>, \'CAT\': <class \'gluon.html.CAT\'>, \'CENTER\': <class \'gluon.html.CENTER\'>, ...}, layer=r\'C:\\Users\\Bruno\\Downloads\\web2py\\applications\\avalweb3\\controllers/cadastro.py\', scode=<code object <module> at 04C59F98, file "C:\\User...ations\\avalweb3\\controllers/cadastro.py", line 1>)'
p90
sS'func'
p91
S'restricted'
p92
sa(dp93
g68
S'C:\\Users\\Bruno\\Downloads\\web2py\\applications\\avalweb3\\controllers\\cadastro.py'
p94
sg70
(dp95
sg76
I19
sg77
(dp96
I9
S'\texcept Exception:'
p97
sI10
S"\t\tresponse.flash = 'Usu\xc3\xa1rio j\xc3\xa1 cadastrado'"
p98
sI11
S'\treturn dict(form=form)'
p99
sI12
S''
sI13
S'def professor():'
p100
sI14
S"\tlabels = {'user_prof':'Usu\xc3\xa1rio', 'passw_prof':'Senha', 'nome_prof':'Nome completo', 'email_prof':'E-mail'}"
p101
sI15
S"\tform = SQLFORM(db.professor, submit_button='Cadastrar', labels = labels, length=100)"
p102
sI16
S'\tif form.accepts(request.vars, session):'
p103
sI17
S"\t\tresponse.flash = 'Cadastrado com sucesso'"
p104
sI18
S'\treturn dict(form=form)'
p105
ssg89
S'()'
p106
sg91
S'<module>'
p107
sa(dp108
g68
S'C:\\Users\\Bruno\\Downloads\\web2py\\gluon\\globals.py'
p109
sg70
(dp110
S'self'
p111
S'undefined'
p112
sS'f'
S'<function professor>'
p113
ssg76
I414
sg77
(dp114
I416
S'        self._custom_commit = None'
p115
sI417
S'        self._custom_rollback = None'
p116
sI418
S"        self.generic_patterns = ['*']"
p117
sI409
S"        self.flash = ''            # used by the default view layout"
p118
sI410
S'        self.meta = Storage()      # used by web2py_ajax.html'
p119
sI411
S'        self.menu = []             # used by the default view layout'
p120
sI412
S'        self.files = []            # used by web2py_ajax.html'
p121
sI413
S'        self._vars = None'
p122
sI414
S'        self._caller = lambda f: f()'
p123
sI415
S'        self._view_environment = None'
p124
ssg89
S'(f=<function professor>)'
p125
sg91
S'<lambda>'
p126
sa(dp127
g68
S'C:\\Users\\Bruno\\Downloads\\web2py\\applications\\avalweb3\\controllers\\cadastro.py'
p128
sg70
(dp129
sg76
I16
sg77
(dp130
I9
S'\texcept Exception:'
p131
sI10
S"\t\tresponse.flash = 'Usu\xc3\xa1rio j\xc3\xa1 cadastrado'"
p132
sI11
S'\treturn dict(form=form)'
p133
sI12
S''
sI13
S'def professor():'
p134
sI14
S"\tlabels = {'user_prof':'Usu\xc3\xa1rio', 'passw_prof':'Senha', 'nome_prof':'Nome completo', 'email_prof':'E-mail'}"
p135
sI15
S"\tform = SQLFORM(db.professor, submit_button='Cadastrar', labels = labels, length=100)"
p136
sI16
S'\tif form.accepts(request.vars, session):'
p137
sI17
S"\t\tresponse.flash = 'Cadastrado com sucesso'"
p138
sI18
S'\treturn dict(form=form)'
p139
ssg89
S'()'
p140
sg91
S'professor'
p141
sa(dp142
g68
S'C:\\Users\\Bruno\\Downloads\\web2py\\gluon\\sqlhtml.py'
p143
sg70
(dp144
S'self.vars.id'
p145
S'None'
p146
sS'fields'
p147
S"{'email_prof': 'dasdas', 'nome_prof': 'dsad', 'passw_prof': '1234', 'user_prof': 'bruno_galerani@hotmail.com'}"
p148
sS'self'
p149
S'<gluon.sqlhtml.SQLFORM object>'
p150
sS'self.vars'
p151
S"<Storage {'user_prof': 'bruno_galerani@hotmail.c...4', 'email_prof': 'dasdas', 'nome_prof': 'dsad'}>"
p152
sS'self.table.insert'
p153
S'<bound method Table.insert of <Table professor (id, user_prof, passw_prof, nome_prof, email_prof)>>'
p154
sS'self.table'
p155
S'<Table professor (id, user_prof, passw_prof, nome_prof, email_prof)>'
p156
ssg76
I1862
sg77
(dp157
I1857
S'                    self.vars.id = self.record[self.id_field_name]'
p158
sI1858
S'                    if fields:'
p159
sI1859
S'                        self.table._db(self.table._id == self.record['
p160
sI1860
S'                                       self.id_field_name]).update(**fields)'
p161
sI1861
S'                else:'
p162
sI1862
S'                    self.vars.id = self.table.insert(**fields)'
p163
sI1863
S''
sI1864
S'        self.accepted = ret'
p164
sI1865
S'        return ret'
p165
sI1866
S''
ssg89
S"(self=<gluon.sqlhtml.SQLFORM object>, request_vars=<Storage {'user_prof': 'bruno_galerani@hotmail.c...ormkey': 'e36dbc14-c2a8-4fdf-8303-364ab81df1f1'}>, session=<Storage {'user_aluno': None, '_formkey[aluno/cr...2f08e', 'c6f0a37a-dfc7-4b49-b835-fa95083db517']}>, formname='professor/create', keepvalues=False, onvalidation=None, dbio=True, hideerror=False, detect_record_change=False, **kwargs={})"
p166
sg91
S'accepts'
p167
sa(dp168
g68
S'C:\\Users\\Bruno\\Downloads\\web2py\\gluon\\packages\\dal\\pydal\\objects.py'
p169
sg70
(dp170
S'self'
p171
S'<Table professor (id, user_prof, passw_prof, nome_prof, email_prof)>'
p172
sS'ret'
p173
g112
sS'row.op_values'
p174
S"<bound method OpRow.op_values of <OpRow {'user_p...', 'email_prof': 'dasdas', 'nome_prof': 'dsad'}>>"
p175
sS'self._db._adapter'
p176
S'<pydal.adapters.mysql.MySQL object>'
p177
sS'self._db._adapter.insert'
p178
S'<bound method MySQL.insert of <pydal.adapters.mysql.MySQL object>>'
p179
sS'self._db'
p180
S'<DAL uri="mysql:******@localhost/avalweb">'
p181
sS'row'
p182
S"<OpRow {'user_prof': 'bruno_galerani@hotmail.com...4', 'email_prof': 'dasdas', 'nome_prof': 'dsad'}>"
p183
ssg76
I734
sg77
(dp184
I736
S'            for f in self._after_insert:'
p185
sI737
S'                f(row, ret)'
p186
sI738
S'        return ret'
p187
sI729
S''
sI730
S'    def insert(self, **fields):'
p188
sI731
S'        row = self._fields_and_values_for_insert(fields)'
p189
sI732
S'        if any(f(row) for f in self._before_insert):'
p190
sI733
S'            return 0'
p191
sI734
S'        ret = self._db._adapter.insert(self, row.op_values())'
p192
sI735
S'        if ret and self._after_insert:'
p193
ssg89
S"(self=<Table professor (id, user_prof, passw_prof, nome_prof, email_prof)>, **fields={'email_prof': 'dasdas', 'nome_prof': 'dsad', 'passw_prof': '1234', 'user_prof': 'bruno_galerani@hotmail.com'})"
p194
sg91
S'insert'
p195
sa(dp196
g68
S'C:\\Users\\Bruno\\Downloads\\web2py\\gluon\\packages\\dal\\pydal\\adapters\\base.py'
p197
sg70
(dp198
S'e'
S'IntegrityError(1062, "Duplicate entry \'bruno_galerani@hotmail.com\' for key \'user_prof\'")'
p199
ssg76
I486
sg77
(dp200
I481
S'            self.execute(query)'
p201
sI482
S'        except:'
p202
sI483
S'            e = sys.exc_info()[1]'
p203
sI484
S"            if hasattr(table, '_on_insert_error'):"
p204
sI485
S'                return table._on_insert_error(table, fields, e)'
p205
sI486
S'            raise e'
p206
sI487
S"        if hasattr(table, '_primarykey'):"
p207
sI488
S'            pkdict = dict(['
p208
sI489
S'                (k[0].name, k[1]) for k in fields'
p209
sI490
S'                if k[0].name in table._primarykey])'
p210
ssg89
S"(self=<pydal.adapters.mysql.MySQL object>, table=<Table professor (id, user_prof, passw_prof, nome_prof, email_prof)>, fields=[(<pydal.objects.Field object>, 'bruno_galerani@hotmail.com'), (<pydal.objects.Field object>, '1234'), (<pydal.objects.Field object>, 'dasdas'), (<pydal.objects.Field object>, 'dsad')])"
p211
sg91
g195
sasS'pyver'
p212
S'Python 2.7.9: C:\\Users\\Bruno\\Downloads\\web2py\\web2py.exe (prefix: C:\\Python27)'
p213
sS'session'
p214
g63
(S's\xa1\x00\x00\x00<div><table><tr><td style="font-weight:bold;vertical-align:top;">user_aluno</td><td style="vertical-align:top;">:</td><td><div>None</div></td></tr></table></div>'
tRp215
sS'etype'
p216
S"<class '_mysql_exceptions.IntegrityError'>"
p217
sS'date'
p218
S'Sat Nov 25 14:39:35 2017'
p219
sS'response'
p220
g63
(S's\xd0\x18\x00\x00<div><table><tr><td style="font-weight:bold;vertical-align:top;">body</td><td style="vertical-align:top;">:</td><td><div>&lt;cStringIO.StringO object at 0x0474AC20&gt;</div></td></tr><tr><td style="font-weight:bold;vertical-align:top;">cookies</td><td style="vertical-align:top;">:</td><td><div><table><tr><td style="font-weight:bold;vertical-align:top;">session_id_avalweb3</td><td style="vertical-align:top;">:</td><td><div>127.0.0.1-8137bee1-1fc0-4a02-a958-2f387ae7e7b1<table><tr><td style="font-weight:bold;vertical-align:top;">comment</td><td style="vertical-align:top;">:</td><td><div></div></td></tr><tr><td style="font-weight:bold;vertical-align:top;">domain</td><td style="vertical-align:top;">:</td><td><div></div></td></tr><tr><td style="font-weight:bold;vertical-align:top;">expires</td><td style="vertical-align:top;">:</td><td><div></div></td></tr><tr><td style="font-weight:bold;vertical-align:top;">httponly</td><td style="vertical-align:top;">:</td><td><div></div></td></tr><tr><td style="font-weight:bold;vertical-align:top;">max-age</td><td style="vertical-align:top;">:</td><td><div></div></td></tr><tr><td style="font-weight:bold;vertical-align:top;">path</td><td style="vertical-align:top;">:</td><td><div>/</div></td></tr><tr><td style="font-weight:bold;vertical-align:top;">secure</td><td style="vertical-align:top;">:</td><td><div></div></td></tr><tr><td style="font-weight:bold;vertical-align:top;">version</td><td style="vertical-align:top;">:</td><td><div></div></td></tr></table></div></td></tr></table></div></td></tr><tr><td style="font-weight:bold;vertical-align:top;">delimiters</td><td style="vertical-align:top;">:</td><td><div><table><tr><td><div>{{</div></td></tr><tr><td><div>}}</div></td></tr></table></div></td></tr><tr><td style="font-weight:bold;vertical-align:top;">files</td><td style="vertical-align:top;">:</td><td><div><table></table></div></td></tr><tr><td style="font-weight:bold;vertical-align:top;">flash</td><td style="vertical-align:top;">:</td><td><div></div></td></tr><tr><td style="font-weight:bold;vertical-align:top;">form_label_separator</td><td style="vertical-align:top;">:</td><td><div>: </div></td></tr><tr><td style="font-weight:bold;vertical-align:top;">formstyle</td><td style="vertical-align:top;">:</td><td><div>table3cols</div></td></tr><tr><td style="font-weight:bold;vertical-align:top;">generic_patterns</td><td style="vertical-align:top;">:</td><td><div><table><tr><td><div>*</div></td></tr></table></div></td></tr><tr><td style="font-weight:bold;vertical-align:top;">headers</td><td style="vertical-align:top;">:</td><td><div><table><tr><td style="font-weight:bold;vertical-align:top;">X-Powered-By</td><td style="vertical-align:top;">:</td><td><div>web2py</div></td></tr></table></div></td></tr><tr><td style="font-weight:bold;vertical-align:top;">menu</td><td style="vertical-align:top;">:</td><td><div><table><tr><td><div><table><tr><td><div>Home</div></td></tr><tr><td><div>False</div></td></tr><tr><td><div>/avalweb3/default/index</div></td></tr></table></div></td></tr><tr><td><div><table><tr><td><div>Sair</div></td></tr><tr><td><div>False</div></td></tr><tr><td><div>/avalweb3/logout/logout</div></td></tr></table></div></td></tr></table></div></td></tr><tr><td style="font-weight:bold;vertical-align:top;">meta</td><td style="vertical-align:top;">:</td><td><div><table></table></div></td></tr><tr><td style="font-weight:bold;vertical-align:top;">models_to_run</td><td style="vertical-align:top;">:</td><td><div><table><tr><td><div>^\\w+\\.py$</div></td></tr><tr><td><div>^cadastro/\\w+\\.py$</div></td></tr><tr><td><div>^cadastro/professor/\\w+\\.py$</div></td></tr></table></div></td></tr><tr><td style="font-weight:bold;vertical-align:top;">postprocessing</td><td style="vertical-align:top;">:</td><td><div><table></table></div></td></tr><tr><td style="font-weight:bold;vertical-align:top;">session_client</td><td style="vertical-align:top;">:</td><td><div>127.0.0.1</div></td></tr><tr><td style="font-weight:bold;vertical-align:top;">session_cookie_compression_level</td><td style="vertical-align:top;">:</td><td><div>None</div></td></tr><tr><td style="font-weight:bold;vertical-align:top;">session_cookie_expires</td><td style="vertical-align:top;">:</td><td><div>None</div></td></tr><tr><td style="font-weight:bold;vertical-align:top;">session_data_name</td><td style="vertical-align:top;">:</td><td><div>session_data_avalweb3</div></td></tr><tr><td style="font-weight:bold;vertical-align:top;">session_file</td><td style="vertical-align:top;">:</td><td><div>&lt;open file &#x27;C:\\\\Users\\\\Bruno\\\\Downloads\\\\web2py\\\\applications\\\\avalweb3\\\\sessions\\\\1f5\\\\023\\\\127.0.0.1-8137bee1-1fc0-4a02-a958-2f387ae7e7b1&#x27;, mode &#x27;rb+&#x27; at 0x03286F98&gt;</div></td></tr><tr><td style="font-weight:bold;vertical-align:top;">session_filename</td><td style="vertical-align:top;">:</td><td><div>C:\\Users\\Bruno\\Downloads\\web2py\\applications\\avalweb3\\sessions\\127.0.0.1-8137bee1-1fc0-4a02-a958-2f387ae7e7b1</div></td></tr><tr><td style="font-weight:bold;vertical-align:top;">session_hash</td><td style="vertical-align:top;">:</td><td><div>ab5a0e0feb13890e984e97ae872c5643</div></td></tr><tr><td style="font-weight:bold;vertical-align:top;">session_id</td><td style="vertical-align:top;">:</td><td><div>127.0.0.1-8137bee1-1fc0-4a02-a958-2f387ae7e7b1</div></td></tr><tr><td style="font-weight:bold;vertical-align:top;">session_id_name</td><td style="vertical-align:top;">:</td><td><div>session_id_avalweb3</div></td></tr><tr><td style="font-weight:bold;vertical-align:top;">session_locked</td><td style="vertical-align:top;">:</td><td><div>True</div></td></tr><tr><td style="font-weight:bold;vertical-align:top;">session_masterapp</td><td style="vertical-align:top;">:</td><td><div>avalweb3</div></td></tr><tr><td style="font-weight:bold;vertical-align:top;">session_new</td><td style="vertical-align:top;">:</td><td><div>False</div></td></tr><tr><td style="font-weight:bold;vertical-align:top;">session_storage_type</td><td style="vertical-align:top;">:</td><td><div>file</div></td></tr><tr><td style="font-weight:bold;vertical-align:top;">status</td><td style="vertical-align:top;">:</td><td><div>200</div></td></tr><tr><td style="font-weight:bold;vertical-align:top;">view</td><td style="vertical-align:top;">:</td><td><div>cadastro/professor.html</div></td></tr></table></div>'
tRp221
sS'locals'
p222
(dp223
S'query'
p224
S'"INSERT INTO `professor`(`user_prof`,`passw_prof`...no_galerani@hotmail.com\',\'1234\',\'dasdas\',\'dsad\');"'
p225
sS'self'
p226
S'<pydal.adapters.mysql.MySQL object>'
p227
sS'e'
S'IntegrityError(1062, "Duplicate entry \'bruno_galerani@hotmail.com\' for key \'user_prof\'")'
p228
sS'fields'
p229
S"[(<pydal.objects.Field object>, 'bruno_galerani@hotmail.com'), (<pydal.objects.Field object>, '1234'), (<pydal.objects.Field object>, 'dasdas'), (<pydal.objects.Field object>, 'dsad')]"
p230
sS'table'
p231
S'<Table professor (id, user_prof, passw_prof, nome_prof, email_prof)>'
p232
sssS'traceback'
p233
S'Traceback (most recent call last):\n  File "C:\\Users\\Bruno\\Downloads\\web2py\\gluon\\restricted.py", line 219, in restricted\n    exec(ccode, environment)\n  File "C:\\Users\\Bruno\\Downloads\\web2py\\applications\\avalweb3\\controllers/cadastro.py", line 19, in <module>\n  File "C:\\Users\\Bruno\\Downloads\\web2py\\gluon\\globals.py", line 414, in <lambda>\n    self._caller = lambda f: f()\n  File "C:\\Users\\Bruno\\Downloads\\web2py\\applications\\avalweb3\\controllers/cadastro.py", line 16, in professor\n    if form.accepts(request.vars, session):\n  File "C:\\Users\\Bruno\\Downloads\\web2py\\gluon\\sqlhtml.py", line 1862, in accepts\n    self.vars.id = self.table.insert(**fields)\n  File "C:\\Users\\Bruno\\Downloads\\web2py\\gluon\\packages\\dal\\pydal\\objects.py", line 734, in insert\n    ret = self._db._adapter.insert(self, row.op_values())\n  File "C:\\Users\\Bruno\\Downloads\\web2py\\gluon\\packages\\dal\\pydal\\adapters\\base.py", line 486, in insert\n    raise e\nIntegrityError: (1062, "Duplicate entry \'bruno_galerani@hotmail.com\' for key \'user_prof\'")\n'
p234
s.