(dp1
S'output'
p2
S"<type 'exceptions.IOError'> [Errno 2] No such file or directory: 'C:\\\\Users\\\\ferna\\\\Downloads\\\\web2py\\\\applications\\\\avalweb3\\\\databases\\\\sql.log'"
p3
sS'layer'
p4
S'C:\\Users\\ferna\\Downloads\\web2py\\applications\\avalweb3\\models\\db.py'
p5
sS'code'
p6
S'<code object <module> at 03E5F800, file "C:\\Users\\ferna\\Downloads\\web2py\\applications\\avalweb3\\models\\db.py", line 1>'
p7
sS'snapshot'
p8
(dp9
S'exception'
p10
(dp11
S'__getslice__'
p12
S"<method-wrapper '__getslice__' of exceptions.IOError object>"
p13
sS'__str__'
p14
S"<method-wrapper '__str__' of exceptions.IOError object>"
p15
sS'__reduce__'
p16
S'<built-in method __reduce__ of exceptions.IOError object>'
p17
sS'__dict__'
p18
S'{}'
p19
sS'__sizeof__'
p20
S'<built-in method __sizeof__ of exceptions.IOError object>'
p21
sS'message'
p22
S"''"
p23
sS'__init__'
p24
S"<method-wrapper '__init__' of exceptions.IOError object>"
p25
sS'__setattr__'
p26
S"<method-wrapper '__setattr__' of exceptions.IOError object>"
p27
sS'__reduce_ex__'
p28
S'<built-in method __reduce_ex__ of exceptions.IOError object>'
p29
sS'__new__'
p30
S'<built-in method __new__ of type object>'
p31
sS'errno'
p32
S'2'
sS'__format__'
p33
S'<built-in method __format__ of exceptions.IOError object>'
p34
sS'__class__'
p35
S"<type 'exceptions.IOError'>"
p36
sS'filename'
p37
S"r'C:\\Users\\ferna\\Downloads\\web2py\\applications\\avalweb3\\databases\\sql.log'"
p38
sS'__doc__'
p39
S"'I/O operation failed.'"
p40
sS'__getitem__'
p41
S"<method-wrapper '__getitem__' of exceptions.IOError object>"
p42
sS'__setstate__'
p43
S'<built-in method __setstate__ of exceptions.IOError object>'
p44
sS'__getattribute__'
p45
S"<method-wrapper '__getattribute__' of exceptions.IOError object>"
p46
sS'args'
p47
S"(2, 'No such file or directory')"
p48
sS'__subclasshook__'
p49
S'<built-in method __subclasshook__ of type object>'
p50
sS'__unicode__'
p51
S'<built-in method __unicode__ of exceptions.IOError object>'
p52
sS'strerror'
p53
S"'No such file or directory'"
p54
sS'__delattr__'
p55
S"<method-wrapper '__delattr__' of exceptions.IOError object>"
p56
sS'__repr__'
p57
S"<method-wrapper '__repr__' of exceptions.IOError object>"
p58
sS'__hash__'
p59
S"<method-wrapper '__hash__' of exceptions.IOError object>"
p60
ssS'evalue'
p61
S"[Errno 2] No such file or directory: 'C:\\\\Users\\\\ferna\\\\Downloads\\\\web2py\\\\applications\\\\avalweb3\\\\databases\\\\sql.log'"
p62
sS'request'
p63
cgluon.html
XML_unpickle
p64
(S's\xe5Z\x00\x00<div><table><tr><td style="font-weight:bold;vertical-align:top;">ajax</td><td style="vertical-align:top;">:</td><td><div>False</div></td></tr><tr><td style="font-weight:bold;vertical-align:top;">application</td><td style="vertical-align:top;">:</td><td><div>avalweb3</div></td></tr><tr><td style="font-weight:bold;vertical-align:top;">args</td><td style="vertical-align:top;">:</td><td><div><table></table></div></td></tr><tr><td style="font-weight:bold;vertical-align:top;">cid</td><td style="vertical-align:top;">:</td><td><div>None</div></td></tr><tr><td style="font-weight:bold;vertical-align:top;">client</td><td style="vertical-align:top;">:</td><td><div>127.0.0.1</div></td></tr><tr><td style="font-weight:bold;vertical-align:top;">controller</td><td style="vertical-align:top;">:</td><td><div>default</div></td></tr><tr><td style="font-weight:bold;vertical-align:top;">cookies</td><td style="vertical-align:top;">:</td><td><div><table><tr><td style="font-weight:bold;vertical-align:top;">session_id_admin</td><td style="vertical-align:top;">:</td><td><div>127.0.0.1-5828d73d-bed7-4803-ae64-167aa08b255a<table><tr><td style="font-weight:bold;vertical-align:top;">comment</td><td style="vertical-align:top;">:</td><td><div></div></td></tr><tr><td style="font-weight:bold;vertical-align:top;">domain</td><td style="vertical-align:top;">:</td><td><div></div></td></tr><tr><td style="font-weight:bold;vertical-align:top;">expires</td><td style="vertical-align:top;">:</td><td><div></div></td></tr><tr><td style="font-weight:bold;vertical-align:top;">httponly</td><td style="vertical-align:top;">:</td><td><div></div></td></tr><tr><td style="font-weight:bold;vertical-align:top;">max-age</td><td style="vertical-align:top;">:</td><td><div></div></td></tr><tr><td style="font-weight:bold;vertical-align:top;">path</td><td style="vertical-align:top;">:</td><td><div></div></td></tr><tr><td style="font-weight:bold;vertical-align:top;">secure</td><td style="vertical-align:top;">:</td><td><div></div></td></tr><tr><td style="font-weight:bold;vertical-align:top;">version</td><td style="vertical-align:top;">:</td><td><div></div></td></tr></table></div></td></tr><tr><td style="font-weight:bold;vertical-align:top;">session_id_welcome</td><td style="vertical-align:top;">:</td><td><div>127.0.0.1-0f124237-06b8-4902-8c1d-e3465f6cad97<table><tr><td style="font-weight:bold;vertical-align:top;">comment</td><td style="vertical-align:top;">:</td><td><div></div></td></tr><tr><td style="font-weight:bold;vertical-align:top;">domain</td><td style="vertical-align:top;">:</td><td><div></div></td></tr><tr><td style="font-weight:bold;vertical-align:top;">expires</td><td style="vertical-align:top;">:</td><td><div></div></td></tr><tr><td style="font-weight:bold;vertical-align:top;">httponly</td><td style="vertical-align:top;">:</td><td><div></div></td></tr><tr><td style="font-weight:bold;vertical-align:top;">max-age</td><td style="vertical-align:top;">:</td><td><div></div></td></tr><tr><td style="font-weight:bold;vertical-align:top;">path</td><td style="vertical-align:top;">:</td><td><div></div></td></tr><tr><td style="font-weight:bold;vertical-align:top;">secure</td><td style="vertical-align:top;">:</td><td><div></div></td></tr><tr><td style="font-weight:bold;vertical-align:top;">version</td><td style="vertical-align:top;">:</td><td><div></div></td></tr></table></div></td></tr></table></div></td></tr><tr><td style="font-weight:bold;vertical-align:top;">env</td><td style="vertical-align:top;">:</td><td><div><table><tr><td style="font-weight:bold;vertical-align:top;">HTTP_ACCEPT</td><td style="vertical-align:top;">:</td><td><div>text/html,application/xhtml+xml,application/xml;q=0.9,image/webp,image/apng,*/*;q=0.8</div></td></tr><tr><td style="font-weight:bold;vertical-align:top;">HTTP_ACCEPT_ENCODING</td><td style="vertical-align:top;">:</td><td><div>gzip, deflate, br</div></td></tr><tr><td style="font-weight:bold;vertical-align:top;">HTTP_ACCEPT_LANGUAGE</td><td style="vertical-align:top;">:</td><td><div>pt-BR,pt;q=0.9,en-US;q=0.8,en;q=0.7</div></td></tr><tr><td style="font-weight:bold;vertical-align:top;">HTTP_CONNECTION</td><td style="vertical-align:top;">:</td><td><div>keep-alive</div></td></tr><tr><td style="font-weight:bold;vertical-align:top;">HTTP_COOKIE</td><td style="vertical-align:top;">:</td><td><div>session_id_welcome=127.0.0.1-0f124237-06b8-4902-8c1d-e3465f6cad97; session_id_admin=127.0.0.1-5828d73d-bed7-4803-ae64-167aa08b255a</div></td></tr><tr><td style="font-weight:bold;vertical-align:top;">HTTP_HOST</td><td style="vertical-align:top;">:</td><td><div>127.0.0.1:8000</div></td></tr><tr><td style="font-weight:bold;vertical-align:top;">HTTP_REFERER</td><td style="vertical-align:top;">:</td><td><div>http://127.0.0.1:8000/admin/default/site</div></td></tr><tr><td style="font-weight:bold;vertical-align:top;">HTTP_UPGRADE_INSECURE_REQUESTS</td><td style="vertical-align:top;">:</td><td><div>1</div></td></tr><tr><td style="font-weight:bold;vertical-align:top;">HTTP_USER_AGENT</td><td style="vertical-align:top;">:</td><td><div>Mozilla/5.0 (Windows NT 10.0; Win64; x64) AppleWebKit/537.36 (KHTML, like Gecko) Chrome/62.0.3202.94 Safari/537.36</div></td></tr><tr><td style="font-weight:bold;vertical-align:top;">PATH_INFO</td><td style="vertical-align:top;">:</td><td><div>/avalweb3/default/index</div></td></tr><tr><td style="font-weight:bold;vertical-align:top;">QUERY_STRING</td><td style="vertical-align:top;">:</td><td><div></div></td></tr><tr><td style="font-weight:bold;vertical-align:top;">REMOTE_ADDR</td><td style="vertical-align:top;">:</td><td><div>127.0.0.1</div></td></tr><tr><td style="font-weight:bold;vertical-align:top;">REMOTE_PORT</td><td style="vertical-align:top;">:</td><td><div>54560</div></td></tr><tr><td style="font-weight:bold;vertical-align:top;">REQUEST_METHOD</td><td style="vertical-align:top;">:</td><td><div>GET</div></td></tr><tr><td style="font-weight:bold;vertical-align:top;">SCRIPT_NAME</td><td style="vertical-align:top;">:</td><td><div></div></td></tr><tr><td style="font-weight:bold;vertical-align:top;">SERVER_NAME</td><td style="vertical-align:top;">:</td><td><div>DESKTOP-9DJ4MK4</div></td></tr><tr><td style="font-weight:bold;vertical-align:top;">SERVER_PORT</td><td style="vertical-align:top;">:</td><td><div>8000</div></td></tr><tr><td style="font-weight:bold;vertical-align:top;">SERVER_PROTOCOL</td><td style="vertical-align:top;">:</td><td><div>HTTP/1.1</div></td></tr><tr><td style="font-weight:bold;vertical-align:top;">SERVER_SOFTWARE</td><td style="vertical-align:top;">:</td><td><div>Rocket 1.2.6</div></td></tr><tr><td style="font-weight:bold;vertical-align:top;">app_folders</td><td style="vertical-align:top;">:</td><td><div>set([&#x27;C:\\\\Users\\\\ferna\\\\Downloads\\\\web2py\\\\applications\\\\avalweb3\\\\&#x27;, &#x27;C:\\\\Users\\\\ferna\\\\Downloads\\\\web2py\\\\applications\\\\admin\\\\&#x27;, &#x27;C:\\\\Users\\\\ferna\\\\Downloads\\\\web2py\\\\applications\\\\welcome\\\\&#x27;])</div></td></tr><tr><td style="font-weight:bold;vertical-align:top;">applications_parent</td><td style="vertical-align:top;">:</td><td><div>C:\\Users\\ferna\\Downloads\\web2py</div></td></tr><tr><td style="font-weight:bold;vertical-align:top;">cmd_args</td><td style="vertical-align:top;">:</td><td><div><table></table></div></td></tr><tr><td style="font-weight:bold;vertical-align:top;">cmd_options</td><td style="vertical-align:top;">:</td><td><div>&lt;Values at 0x2feb8a0: {&#x27;verbose&#x27;: False, &#x27;ip&#x27;: &#x27;127.0.0.1&#x27;, &#x27;debuglevel&#x27;: 30, &#x27;with_scheduler&#x27;: False, &#x27;shutdown_timeout&#x27;: 5, &#x27;taskbar&#x27;: False, &#x27;with_coverage&#x27;: False, &#x27;pid_filename&#x27;: &#x27;httpserver.pid&#x27;, &#x27;maxthreads&#x27;: None, &#x27;softcron&#x27;: False, &#x27;server_name&#x27;: &#x27;DESKTOP-9DJ4MK4&#x27;, &#x27;bpython&#x27;: False, &#x27;nogui&#x27;: False, &#x27;port&#x27;: 8000, &#x27;print_errors&#x27;: False, &#x27;extcron&#x27;: False, &#x27;runcron&#x27;: False, &#x27;run_system_tests&#x27;: False, &#x27;test&#x27;: None, &#x27;folder&#x27;: &#x27;C:\\\\Users\\\\ferna\\\\Downloads\\\\web2py&#x27;, &#x27;config&#x27;: &#x27;&#x27;, &#x27;minthreads&#x27;: None, &#x27;shell&#x27;: None, &#x27;run&#x27;: &#x27;&#x27;, &#x27;log_filename&#x27;: &#x27;httpserver.log&#x27;, &#x27;profiler_dir&#x27;: None, &#x27;args&#x27;: [&#x27;&#x27;], &#x27;socket_timeout&#x27;: 5, &#x27;ssl_ca_certificate&#x27;: None, &#x27;scheduler&#x27;: None, &#x27;interfaces&#x27;: None, &#x27;ssl_private_key&#x27;: &#x27;&#x27;, &#x27;gae&#x27;: None, &#x27;password&#x27;: &#x27;******&#x27;, &#x27;request_queue_size&#x27;: 5, &#x27;ssl_certificate&#x27;: &#x27;&#x27;, &#x27;cronjob&#x27;: False, &#x27;numthreads&#x27;: None, &#x27;quiet&#x27;: False, &#x27;import_models&#x27;: False, &#x27;timeout&#x27;: 10, &#x27;plain&#x27;: False, &#x27;nobanner&#x27;: False}&gt;</div></td></tr><tr><td style="font-weight:bold;vertical-align:top;">db_sessions</td><td style="vertical-align:top;">:</td><td><div>set([])</div></td></tr><tr><td style="font-weight:bold;vertical-align:top;">debugging</td><td style="vertical-align:top;">:</td><td><div>False</div></td></tr><tr><td style="font-weight:bold;vertical-align:top;">gluon_parent</td><td style="vertical-align:top;">:</td><td><div>C:\\Users\\ferna\\Downloads\\web2py</div></td></tr><tr><td style="font-weight:bold;vertical-align:top;">http_accept</td><td style="vertical-align:top;">:</td><td><div>text/html,application/xhtml+xml,application/xml;q=0.9,image/webp,image/apng,*/*;q=0.8</div></td></tr><tr><td style="font-weight:bold;vertical-align:top;">http_accept_encoding</td><td style="vertical-align:top;">:</td><td><div>gzip, deflate, br</div></td></tr><tr><td style="font-weight:bold;vertical-align:top;">http_accept_language</td><td style="vertical-align:top;">:</td><td><div>pt-BR,pt;q=0.9,en-US;q=0.8,en;q=0.7</div></td></tr><tr><td style="font-weight:bold;vertical-align:top;">http_connection</td><td style="vertical-align:top;">:</td><td><div>keep-alive</div></td></tr><tr><td style="font-weight:bold;vertical-align:top;">http_cookie</td><td style="vertical-align:top;">:</td><td><div>session_id_welcome=127.0.0.1-0f124237-06b8-4902-8c1d-e3465f6cad97; session_id_admin=127.0.0.1-5828d73d-bed7-4803-ae64-167aa08b255a</div></td></tr><tr><td style="font-weight:bold;vertical-align:top;">http_host</td><td style="vertical-align:top;">:</td><td><div>127.0.0.1:8000</div></td></tr><tr><td style="font-weight:bold;vertical-align:top;">http_referer</td><td style="vertical-align:top;">:</td><td><div>http://127.0.0.1:8000/admin/default/site</div></td></tr><tr><td style="font-weight:bold;vertical-align:top;">http_upgrade_insecure_requests</td><td style="vertical-align:top;">:</td><td><div>1</div></td></tr><tr><td style="font-weight:bold;vertical-align:top;">http_user_agent</td><td style="vertical-align:top;">:</td><td><div>Mozilla/5.0 (Windows NT 10.0; Win64; x64) AppleWebKit/537.36 (KHTML, like Gecko) Chrome/62.0.3202.94 Safari/537.36</div></td></tr><tr><td style="font-weight:bold;vertical-align:top;">is_jython</td><td style="vertical-align:top;">:</td><td><div>False</div></td></tr><tr><td style="font-weight:bold;vertical-align:top;">is_py2</td><td style="vertical-align:top;">:</td><td><div>True</div></td></tr><tr><td style="font-weight:bold;vertical-align:top;">is_pypy</td><td style="vertical-align:top;">:</td><td><div>False</div></td></tr><tr><td style="font-weight:bold;vertical-align:top;">is_source</td><td style="vertical-align:top;">:</td><td><div>False</div></td></tr><tr><td style="font-weight:bold;vertical-align:top;">local_hosts</td><td style="vertical-align:top;">:</td><td><div><table><tr><td><div>fe80::e1e1:53f2:e4c8:4b15%2</div></td></tr><tr><td><div>2804:14c:488:bc8:1557:4f9f:dfbf:6476</div></td></tr><tr><td><div>192.168.23.2</div></td></tr><tr><td><div>DESKTOP-9DJ4MK4</div></td></tr><tr><td><div>::ffff:127.0.0.1</div></td></tr><tr><td><div>::1</div></td></tr><tr><td><div>fe80::d4d:ccdd:cd42:99c9%19</div></td></tr><tr><td><div>2804:14c:488:bc8:7514:de9a:39f1:552f</div></td></tr><tr><td><div>192.168.0.13</div></td></tr><tr><td><div>fe80::1557:4f9f:dfbf:6476%14</div></td></tr><tr><td><div>127.0.0.1</div></td></tr><tr><td><div>192.168.56.1</div></td></tr></table></div></td></tr><tr><td style="font-weight:bold;vertical-align:top;">path_info</td><td style="vertical-align:top;">:</td><td><div>/avalweb3/default/index</div></td></tr><tr><td style="font-weight:bold;vertical-align:top;">query_string</td><td style="vertical-align:top;">:</td><td><div></div></td></tr><tr><td style="font-weight:bold;vertical-align:top;">remote_addr</td><td style="vertical-align:top;">:</td><td><div>127.0.0.1</div></td></tr><tr><td style="font-weight:bold;vertical-align:top;">remote_port</td><td style="vertical-align:top;">:</td><td><div>54560</div></td></tr><tr><td style="font-weight:bold;vertical-align:top;">request_method</td><td style="vertical-align:top;">:</td><td><div>GET</div></td></tr><tr><td style="font-weight:bold;vertical-align:top;">request_uri</td><td style="vertical-align:top;">:</td><td><div>/avalweb3/default/index</div></td></tr><tr><td style="font-weight:bold;vertical-align:top;">script_name</td><td style="vertical-align:top;">:</td><td><div></div></td></tr><tr><td style="font-weight:bold;vertical-align:top;">server_name</td><td style="vertical-align:top;">:</td><td><div>DESKTOP-9DJ4MK4</div></td></tr><tr><td style="font-weight:bold;vertical-align:top;">server_port</td><td style="vertical-align:top;">:</td><td><div>8000</div></td></tr><tr><td style="font-weight:bold;vertical-align:top;">server_protocol</td><td style="vertical-align:top;">:</td><td><div>HTTP/1.1</div></td></tr><tr><td style="font-weight:bold;vertical-align:top;">server_software</td><td style="vertical-align:top;">:</td><td><div>Rocket 1.2.6</div></td></tr><tr><td style="font-weight:bold;vertical-align:top;">web2py_path</td><td style="vertical-align:top;">:</td><td><div>C:\\Users\\ferna\\Downloads\\web2py</div></td></tr><tr><td style="font-weight:bold;vertical-align:top;">web2py_version</td><td style="vertical-align:top;">:</td><td><div>2.15.4-stable+timestamp.2017.09.02.04.02.22</div></td></tr><tr><td style="font-weight:bold;vertical-align:top;">wsgi.errors</td><td style="vertical-align:top;">:</td><td><div>&lt;open file &#x27;&lt;stderr&gt;&#x27;, mode &#x27;w&#x27; at 0x0222D0D0&gt;</div></td></tr><tr><td style="font-weight:bold;vertical-align:top;">wsgi.file_wrapper</td><td style="vertical-align:top;">:</td><td><div>&lt;class wsgiref.util.FileWrapper at 0x02EEBA40&gt;</div></td></tr><tr><td style="font-weight:bold;vertical-align:top;">wsgi.input</td><td style="vertical-align:top;">:</td><td><div>&lt;socket._fileobject object at 0x0434B970&gt;</div></td></tr><tr><td style="font-weight:bold;vertical-align:top;">wsgi.multiprocess</td><td style="vertical-align:top;">:</td><td><div>False</div></td></tr><tr><td style="font-weight:bold;vertical-align:top;">wsgi.multithread</td><td style="vertical-align:top;">:</td><td><div>True</div></td></tr><tr><td style="font-weight:bold;vertical-align:top;">wsgi.run_once</td><td style="vertical-align:top;">:</td><td><div>False</div></td></tr><tr><td style="font-weight:bold;vertical-align:top;">wsgi.url_scheme</td><td style="vertical-align:top;">:</td><td><div>http</div></td></tr><tr><td style="font-weight:bold;vertical-align:top;">wsgi.version</td><td style="vertical-align:top;">:</td><td><div><table><tr><td><div>1</div></td></tr><tr><td><div>0</div></td></tr></table></div></td></tr><tr><td style="font-weight:bold;vertical-align:top;">wsgi_errors</td><td style="vertical-align:top;">:</td><td><div>&lt;open file &#x27;&lt;stderr&gt;&#x27;, mode &#x27;w&#x27; at 0x0222D0D0&gt;</div></td></tr><tr><td style="font-weight:bold;vertical-align:top;">wsgi_file_wrapper</td><td style="vertical-align:top;">:</td><td><div>&lt;class wsgiref.util.FileWrapper at 0x02EEBA40&gt;</div></td></tr><tr><td style="font-weight:bold;vertical-align:top;">wsgi_input</td><td style="vertical-align:top;">:</td><td><div>&lt;socket._fileobject object at 0x0434B970&gt;</div></td></tr><tr><td style="font-weight:bold;vertical-align:top;">wsgi_multiprocess</td><td style="vertical-align:top;">:</td><td><div>False</div></td></tr><tr><td style="font-weight:bold;vertical-align:top;">wsgi_multithread</td><td style="vertical-align:top;">:</td><td><div>True</div></td></tr><tr><td style="font-weight:bold;vertical-align:top;">wsgi_run_once</td><td style="vertical-align:top;">:</td><td><div>False</div></td></tr><tr><td style="font-weight:bold;vertical-align:top;">wsgi_url_scheme</td><td style="vertical-align:top;">:</td><td><div>http</div></td></tr><tr><td style="font-weight:bold;vertical-align:top;">wsgi_version</td><td style="vertical-align:top;">:</td><td><div><table><tr><td><div>1</div></td></tr><tr><td><div>0</div></td></tr></table></div></td></tr></table></div></td></tr><tr><td style="font-weight:bold;vertical-align:top;">extension</td><td style="vertical-align:top;">:</td><td><div>html</div></td></tr><tr><td style="font-weight:bold;vertical-align:top;">folder</td><td style="vertical-align:top;">:</td><td><div>C:\\Users\\ferna\\Downloads\\web2py\\applications\\avalweb3\\</div></td></tr><tr><td style="font-weight:bold;vertical-align:top;">function</td><td style="vertical-align:top;">:</td><td><div>index</div></td></tr><tr><td style="font-weight:bold;vertical-align:top;">global_settings</td><td style="vertical-align:top;">:</td><td><div><table><tr><td style="font-weight:bold;vertical-align:top;">app_folders</td><td style="vertical-align:top;">:</td><td><div>set([&#x27;C:\\\\Users\\\\ferna\\\\Downloads\\\\web2py\\\\applications\\\\avalweb3\\\\&#x27;, &#x27;C:\\\\Users\\\\ferna\\\\Downloads\\\\web2py\\\\applications\\\\admin\\\\&#x27;, &#x27;C:\\\\Users\\\\ferna\\\\Downloads\\\\web2py\\\\applications\\\\welcome\\\\&#x27;])</div></td></tr><tr><td style="font-weight:bold;vertical-align:top;">applications_parent</td><td style="vertical-align:top;">:</td><td><div>C:\\Users\\ferna\\Downloads\\web2py</div></td></tr><tr><td style="font-weight:bold;vertical-align:top;">cmd_args</td><td style="vertical-align:top;">:</td><td><div><table></table></div></td></tr><tr><td style="font-weight:bold;vertical-align:top;">cmd_options</td><td style="vertical-align:top;">:</td><td><div>&lt;Values at 0x2feb8a0: {&#x27;verbose&#x27;: False, &#x27;ip&#x27;: &#x27;127.0.0.1&#x27;, &#x27;debuglevel&#x27;: 30, &#x27;with_scheduler&#x27;: False, &#x27;shutdown_timeout&#x27;: 5, &#x27;taskbar&#x27;: False, &#x27;with_coverage&#x27;: False, &#x27;pid_filename&#x27;: &#x27;httpserver.pid&#x27;, &#x27;maxthreads&#x27;: None, &#x27;softcron&#x27;: False, &#x27;server_name&#x27;: &#x27;DESKTOP-9DJ4MK4&#x27;, &#x27;bpython&#x27;: False, &#x27;nogui&#x27;: False, &#x27;port&#x27;: 8000, &#x27;print_errors&#x27;: False, &#x27;extcron&#x27;: False, &#x27;runcron&#x27;: False, &#x27;run_system_tests&#x27;: False, &#x27;test&#x27;: None, &#x27;folder&#x27;: &#x27;C:\\\\Users\\\\ferna\\\\Downloads\\\\web2py&#x27;, &#x27;config&#x27;: &#x27;&#x27;, &#x27;minthreads&#x27;: None, &#x27;shell&#x27;: None, &#x27;run&#x27;: &#x27;&#x27;, &#x27;log_filename&#x27;: &#x27;httpserver.log&#x27;, &#x27;profiler_dir&#x27;: None, &#x27;args&#x27;: [&#x27;&#x27;], &#x27;socket_timeout&#x27;: 5, &#x27;ssl_ca_certificate&#x27;: None, &#x27;scheduler&#x27;: None, &#x27;interfaces&#x27;: None, &#x27;ssl_private_key&#x27;: &#x27;&#x27;, &#x27;gae&#x27;: None, &#x27;password&#x27;: &#x27;******&#x27;, &#x27;request_queue_size&#x27;: 5, &#x27;ssl_certificate&#x27;: &#x27;&#x27;, &#x27;cronjob&#x27;: False, &#x27;numthreads&#x27;: None, &#x27;quiet&#x27;: False, &#x27;import_models&#x27;: False, &#x27;timeout&#x27;: 10, &#x27;plain&#x27;: False, &#x27;nobanner&#x27;: False}&gt;</div></td></tr><tr><td style="font-weight:bold;vertical-align:top;">db_sessions</td><td style="vertical-align:top;">:</td><td><div>set([])</div></td></tr><tr><td style="font-weight:bold;vertical-align:top;">debugging</td><td style="vertical-align:top;">:</td><td><div>False</div></td></tr><tr><td style="font-weight:bold;vertical-align:top;">gluon_parent</td><td style="vertical-align:top;">:</td><td><div>C:\\Users\\ferna\\Downloads\\web2py</div></td></tr><tr><td style="font-weight:bold;vertical-align:top;">is_jython</td><td style="vertical-align:top;">:</td><td><div>False</div></td></tr><tr><td style="font-weight:bold;vertical-align:top;">is_py2</td><td style="vertical-align:top;">:</td><td><div>True</div></td></tr><tr><td style="font-weight:bold;vertical-align:top;">is_pypy</td><td style="vertical-align:top;">:</td><td><div>False</div></td></tr><tr><td style="font-weight:bold;vertical-align:top;">is_source</td><td style="vertical-align:top;">:</td><td><div>False</div></td></tr><tr><td style="font-weight:bold;vertical-align:top;">local_hosts</td><td style="vertical-align:top;">:</td><td><div><table><tr><td><div>fe80::e1e1:53f2:e4c8:4b15%2</div></td></tr><tr><td><div>2804:14c:488:bc8:1557:4f9f:dfbf:6476</div></td></tr><tr><td><div>192.168.23.2</div></td></tr><tr><td><div>DESKTOP-9DJ4MK4</div></td></tr><tr><td><div>::ffff:127.0.0.1</div></td></tr><tr><td><div>::1</div></td></tr><tr><td><div>fe80::d4d:ccdd:cd42:99c9%19</div></td></tr><tr><td><div>2804:14c:488:bc8:7514:de9a:39f1:552f</div></td></tr><tr><td><div>192.168.0.13</div></td></tr><tr><td><div>fe80::1557:4f9f:dfbf:6476%14</div></td></tr><tr><td><div>127.0.0.1</div></td></tr><tr><td><div>192.168.56.1</div></td></tr></table></div></td></tr><tr><td style="font-weight:bold;vertical-align:top;">web2py_version</td><td style="vertical-align:top;">:</td><td><div>2.15.4-stable+timestamp.2017.09.02.04.02.22</div></td></tr></table></div></td></tr><tr><td style="font-weight:bold;vertical-align:top;">is_https</td><td style="vertical-align:top;">:</td><td><div>False</div></td></tr><tr><td style="font-weight:bold;vertical-align:top;">is_local</td><td style="vertical-align:top;">:</td><td><div>True</div></td></tr><tr><td style="font-weight:bold;vertical-align:top;">is_restful</td><td style="vertical-align:top;">:</td><td><div>False</div></td></tr><tr><td style="font-weight:bold;vertical-align:top;">is_scheduler</td><td style="vertical-align:top;">:</td><td><div>False</div></td></tr><tr><td style="font-weight:bold;vertical-align:top;">is_shell</td><td style="vertical-align:top;">:</td><td><div>False</div></td></tr><tr><td style="font-weight:bold;vertical-align:top;">now</td><td style="vertical-align:top;">:</td><td><div>datetime.datetime(2017, 11, 25, 13, 28, 13, 917000)</div></td></tr><tr><td style="font-weight:bold;vertical-align:top;">raw_args</td><td style="vertical-align:top;">:</td><td><div></div></td></tr><tr><td style="font-weight:bold;vertical-align:top;">raw_extension</td><td style="vertical-align:top;">:</td><td><div>None</div></td></tr><tr><td style="font-weight:bold;vertical-align:top;">url</td><td style="vertical-align:top;">:</td><td><div>/avalweb3/default/index</div></td></tr><tr><td style="font-weight:bold;vertical-align:top;">utcnow</td><td style="vertical-align:top;">:</td><td><div>datetime.datetime(2017, 11, 25, 15, 28, 13, 917000)</div></td></tr><tr><td style="font-weight:bold;vertical-align:top;">wsgi</td><td style="vertical-align:top;">:</td><td><div>&lt;gluon.main.LazyWSGI object at 0x03ED2590&gt;</div></td></tr></table></div>'
tRp65
sS'frames'
p66
(lp67
(dp68
S'file'
p69
S'C:\\Users\\ferna\\Downloads\\web2py\\gluon\\restricted.py'
p70
sS'dump'
p71
(dp72
S'environment'
p73
S"{'A': <class 'gluon.html.A'>, 'ANY_OF': <class 'gluon.validators.ANY_OF'>, 'ASSIGNJS': <function ASSIGNJS>, 'B': <class 'gluon.html.B'>, 'BEAUTIFY': <class 'gluon.html.BEAUTIFY'>, 'BODY': <class 'gluon.html.BODY'>, 'BR': <class 'gluon.html.BR'>, 'BUTTON': <class 'gluon.html.BUTTON'>, 'CAT': <class 'gluon.html.CAT'>, 'CENTER': <class 'gluon.html.CENTER'>, ...}"
p74
sS'ccode'
p75
S'<code object <module> at 03E5F800, file "C:\\User...b2py\\applications\\avalweb3\\models\\db.py", line 1>'
p76
ssS'lnum'
p77
I219
sS'lines'
p78
(dp79
I214
S'    if environment is None:'
p80
sI215
S'        environment = {}'
p81
sI216
S"    environment['__file__'] = layer"
p82
sI217
S"    environment['__name__'] = '__restricted__'"
p83
sI218
S'    try:'
p84
sI219
S'        exec(ccode, environment)'
p85
sI220
S'    except HTTP:'
p86
sI221
S'        raise'
p87
sI222
S'    except RestrictedError:'
p88
sI223
S'        # do not encapsulate (obfuscate) the original RestrictedError'
p89
ssS'call'
p90
S'(ccode=<code object <module> at 03E5F800, file "C:\\User...b2py\\applications\\avalweb3\\models\\db.py", line 1>, environment={\'A\': <class \'gluon.html.A\'>, \'ANY_OF\': <class \'gluon.validators.ANY_OF\'>, \'ASSIGNJS\': <function ASSIGNJS>, \'B\': <class \'gluon.html.B\'>, \'BEAUTIFY\': <class \'gluon.html.BEAUTIFY\'>, \'BODY\': <class \'gluon.html.BODY\'>, \'BR\': <class \'gluon.html.BR\'>, \'BUTTON\': <class \'gluon.html.BUTTON\'>, \'CAT\': <class \'gluon.html.CAT\'>, \'CENTER\': <class \'gluon.html.CENTER\'>, ...}, layer=r\'C:\\Users\\ferna\\Downloads\\web2py\\applications\\avalweb3\\models\\db.py\', scode=<code object <module> at 03E5F800, file "C:\\User...b2py\\applications\\avalweb3\\models\\db.py", line 1>)'
p91
sS'func'
p92
S'restricted'
p93
sa(dp94
g69
S'C:\\Users\\ferna\\Downloads\\web2py\\applications\\avalweb3\\models\\db.py'
p95
sg71
(dp96
S'Field'
p97
S"<class 'pydal.objects.Field'>"
p98
ssg77
I8
sg78
(dp99
I3
S'db.define_table('
p100
sI4
S"    'aluno',"
p101
sI5
S"    Field('user_aluno', length=64),"
p102
sI6
S"    Field('passw_aluno'),"
p103
sI7
S"    Field('nome_aluno'),"
p104
sI8
S"    Field('email_aluno'),"
p105
sI9
S');'
p106
sI10
S''
sI11
S'db.define_table('
p107
sI12
S"    'professor',"
p108
ssg90
S'()'
p109
sg92
S'<module>'
p110
sa(dp111
g69
S'C:\\Users\\ferna\\Downloads\\web2py\\gluon\\packages\\dal\\pydal\\base.py'
p112
sg71
(dp113
S'fields'
p114
S'(<pydal.objects.Field object>, <pydal.objects.Field object>, <pydal.objects.Field object>, <pydal.objects.Field object>)'
p115
sS'self'
p116
S'<DAL uri="mysql:******@localhost/avalweb">'
p117
sS'args'
p118
g19
sS'tablename'
p119
S"'aluno'"
p120
sS'table'
p121
S'undefined'
p122
sS'self.lazy_define_table'
p123
S'<bound method DAL.lazy_define_table of <DAL uri="mysql:******@localhost/avalweb">>'
p124
ssg77
I587
sg78
(dp125
I582
S'                                  (tablename, invalid_args))'
p126
sI583
S'        if self._lazy_tables and tablename not in self._LAZY_TABLES:'
p127
sI584
S'            self._LAZY_TABLES[tablename] = (tablename, fields, args)'
p128
sI585
S'            table = None'
p129
sI586
S'        else:'
p130
sI587
S'            table = self.lazy_define_table(tablename, *fields, **args)'
p131
sI588
S'        if tablename not in self.tables:'
p132
sI589
S'            self.tables.append(tablename)'
p133
sI590
S'        return table'
p134
sI591
S''
ssg90
S'(self=<DAL uri="mysql:******@localhost/avalweb">, tablename=\'aluno\', *fields=(<pydal.objects.Field object>, <pydal.objects.Field object>, <pydal.objects.Field object>, <pydal.objects.Field object>), **args={})'
p135
sg92
S'define_table'
p136
sa(dp137
g69
S'C:\\Users\\ferna\\Downloads\\web2py\\gluon\\packages\\dal\\pydal\\base.py'
p138
sg71
(dp139
S'polymodel'
p140
S'None'
p141
ssg77
I621
sg78
(dp142
I616
S'            try:'
p143
sI617
S'                GLOBAL_LOCKER.acquire()'
p144
sI618
S'                self._adapter.create_table('
p145
sI619
S'                    table, migrate=migrate,'
p146
sI620
S'                    fake_migrate=fake_migrate,'
p147
sI621
S'                    polymodel=polymodel)'
p148
sI622
S'            finally:'
p149
sI623
S'                GLOBAL_LOCKER.release()'
p150
sI624
S'        else:'
p151
sI625
S'            table._dbt = None'
p152
ssg90
S'(self=<DAL uri="mysql:******@localhost/avalweb">, tablename=\'aluno\', *fields=(<pydal.objects.Field object>, <pydal.objects.Field object>, <pydal.objects.Field object>, <pydal.objects.Field object>), **args={})'
p153
sg92
S'lazy_define_table'
p154
sa(dp155
g69
S'C:\\Users\\ferna\\Downloads\\web2py\\gluon\\packages\\dal\\pydal\\adapters\\base.py'
p156
sg71
(dp157
S'self'
p158
S'<pydal.adapters.mysql.MySQL object>'
p159
sS'args'
p160
S'(<Table aluno (id, user_aluno, passw_aluno, nome_aluno, email_aluno)>,)'
p161
sS'self.migrator'
p162
S'<pydal.migrator.Migrator object>'
p163
sS'self.migrator.create_table'
p164
S'<bound method Migrator.create_table of <pydal.migrator.Migrator object>>'
p165
sS'kwargs'
p166
S"{'fake_migrate': False, 'migrate': True, 'polymodel': None}"
p167
ssg77
I797
sg78
(dp168
I800
S'        super(SQLAdapter, self)._drop_table_cleanup(table)'
p169
sI801
S'        if table._dbt:'
p170
sI792
S''
sI793
S'    def bulk_insert(self, table, items):'
p171
sI794
S'        return [self.insert(table, item) for item in items]'
p172
sI795
S''
sI796
S'    def create_table(self, *args, **kwargs):'
p173
sI797
S'        return self.migrator.create_table(*args, **kwargs)'
p174
sI798
S''
sI799
S'    def _drop_table_cleanup(self, table):'
p175
ssg90
S"(self=<pydal.adapters.mysql.MySQL object>, *args=(<Table aluno (id, user_aluno, passw_aluno, nome_aluno, email_aluno)>,), **kwargs={'fake_migrate': False, 'migrate': True, 'polymodel': None})"
p176
sg92
S'create_table'
p177
sa(dp178
g69
S'C:\\Users\\ferna\\Downloads\\web2py\\gluon\\packages\\dal\\pydal\\migrator.py'
p179
sg71
(dp180
S'query'
p181
S"'CREATE TABLE `aluno`(\\n    `id` INT AUTO_INCREMEN...RY KEY (`id`)\\n) ENGINE=InnoDB CHARACTER SET utf8;'"
p182
sS'table'
p183
S'<Table aluno (id, user_aluno, passw_aluno, nome_aluno, email_aluno)>'
p184
ssg77
I275
sg78
(dp185
I270
S''
sI271
S'        if not table._dbt or not self.file_exists(table._dbt):'
p186
sI272
S'            if table._dbt:'
p187
sI273
S"                self.log('timestamp: %s\\n%s\\n'"
p188
sI274
S'                         % (datetime.datetime.today().isoformat(),'
p189
sI275
S'                            query), table)'
p190
sI276
S'            if not fake_migrate:'
p191
sI277
S'                self.adapter.create_sequence_and_triggers(query, table)'
p192
sI278
S'                db.commit()'
p193
sI279
S'                # Postgres geom fields are added now,'
p194
ssg90
S'(self=<pydal.migrator.Migrator object>, table=<Table aluno (id, user_aluno, passw_aluno, nome_aluno, email_aluno)>, migrate=True, fake_migrate=False, polymodel=None)'
p195
sg92
g177
sa(dp196
g69
S'C:\\Users\\ferna\\Downloads\\web2py\\gluon\\packages\\dal\\pydal\\migrator.py'
p197
sg71
(dp198
S'table'
p199
S'<Table aluno (id, user_aluno, passw_aluno, nome_aluno, email_aluno)>'
p200
sS'self'
p201
S'<pydal.migrator.Migrator object>'
p202
sS'logfile'
p203
g122
sS'table._loggername'
p204
S"r'C:\\Users\\ferna\\Downloads\\web2py\\applications\\avalweb3\\databases\\sql.log'"
p205
sS'self.file_open'
p206
S'<function file_open>'
p207
ssg77
I483
sg78
(dp208
I480
S'                table._loggername = logfilename'
p209
sI481
S'            else:'
p210
sI482
S'                table._loggername = pjoin(self.adapter.folder, logfilename)'
p211
sI483
S"            logfile = self.file_open(table._loggername, 'ab')"
p212
sI484
S'            logfile.write(to_bytes(message))'
p213
sI485
S'            self.file_close(logfile)'
p214
sI486
S''
sI487
S'    @staticmethod'
p215
sI478
S'        if table and table._dbt and writelog and self.adapter.folder:'
p216
sI479
S'            if isabs:'
p217
ssg90
S"(self=<pydal.migrator.Migrator object>, message='timestamp: 2017-11-25T13:28:13.922000\\nCREATE TAB...Y KEY (`id`)\\n) ENGINE=InnoDB CHARACTER SET utf8;\\n', table=<Table aluno (id, user_aluno, passw_aluno, nome_aluno, email_aluno)>)"
p218
sg92
S'log'
p219
sa(dp220
g69
S'C:\\Users\\ferna\\Downloads\\web2py\\gluon\\packages\\dal\\pydal\\migrator.py'
p221
sg71
(dp222
S'mode'
p223
S"'ab'"
p224
sS'portalocker.LockedFile'
p225
S"<class 'pydal.contrib.portalocker.LockedFile'>"
p226
sS'global portalocker'
p227
S"<module 'pydal.contrib.portalocker' from 'C:\\Use...gluon\\packages\\dal\\pydal\\contrib\\portalocker.py'>"
p228
sS'fileobj'
p229
g122
sS'filename'
p230
S"r'C:\\Users\\ferna\\Downloads\\web2py\\applications\\avalweb3\\databases\\sql.log'"
p231
ssg77
I491
sg78
(dp232
I486
S''
sI487
S'    @staticmethod'
p233
sI488
S"    def file_open(filename, mode='rb', lock=True):"
p234
sI489
S'        #to be used ONLY for files that on GAE may not be on filesystem'
p235
sI490
S'        if lock:'
p236
sI491
S'            fileobj = portalocker.LockedFile(filename, mode)'
p237
sI492
S'        else:'
p238
sI493
S'            fileobj = open(filename, mode)'
p239
sI494
S'        return fileobj'
p240
sI495
S''
ssg90
S"(filename=r'C:\\Users\\ferna\\Downloads\\web2py\\applications\\avalweb3\\databases\\sql.log', mode='ab', lock=True)"
p241
sg92
S'file_open'
p242
sa(dp243
g69
S'C:\\Users\\ferna\\Downloads\\web2py\\gluon\\packages\\dal\\pydal\\contrib\\portalocker.py'
p244
sg71
(dp245
S'mode.replace'
p246
S'<built-in method replace of str object>'
p247
sS'self'
p248
S'<pydal.contrib.portalocker.LockedFile object>'
p249
sS'global open_file'
p250
S'<function open_file>'
p251
sS'filename'
p252
S"r'C:\\Users\\ferna\\Downloads\\web2py\\applications\\avalweb3\\databases\\sql.log'"
p253
sS'mode'
p254
S"'ab'"
p255
sS'self.file'
p256
S'None'
p257
ssg77
I185
sg78
(dp258
I180
S'        self.file = None'
p259
sI181
S"        if 'r' in mode:"
p260
sI182
S'            self.file = open_file(filename, mode)'
p261
sI183
S'            lock(self.file, LOCK_SH)'
p262
sI184
S"        elif 'w' in mode or 'a' in mode:"
p263
sI185
S"            self.file = open_file(filename, mode.replace('w', 'a'))"
p264
sI186
S'            lock(self.file, LOCK_EX)'
p265
sI187
S"            if 'a' not in mode:"
p266
sI188
S'                self.file.seek(0)'
p267
sI189
S'                self.file.truncate(0)'
p268
ssg90
S"(self=<pydal.contrib.portalocker.LockedFile object>, filename=r'C:\\Users\\ferna\\Downloads\\web2py\\applications\\avalweb3\\databases\\sql.log', mode='ab')"
p269
sg92
g24
sa(dp270
g69
S'C:\\Users\\ferna\\Downloads\\web2py\\gluon\\packages\\dal\\pydal\\contrib\\portalocker.py'
p271
sg71
(dp272
S'builtinopen'
p273
S'<built-in function open>'
p274
sS'filename'
p275
S"r'C:\\Users\\ferna\\Downloads\\web2py\\applications\\avalweb3\\databases\\sql.log'"
p276
sS'mode'
p277
S"'ab'"
p278
sS'f'
g122
ssg77
I170
sg78
(dp279
I165
S'        pass'
p280
sI166
S''
sI167
S''
sI168
S'def open_file(filename, mode):'
p281
sI169
S"    if PY2 or 'b' in mode:"
p282
sI170
S'        f = open(filename, mode)'
p283
sI171
S'    else:'
p284
sI172
S"        f = open(filename, mode, encoding='utf8')"
p285
sI173
S'    return f'
p286
sI174
S''
ssg90
S"(filename=r'C:\\Users\\ferna\\Downloads\\web2py\\applications\\avalweb3\\databases\\sql.log', mode='ab')"
p287
sg92
S'open_file'
p288
sasS'pyver'
p289
S'Python 2.7.9: C:\\Users\\ferna\\Downloads\\web2py\\web2py.exe (prefix: )'
p290
sS'session'
p291
g64
(S's\x1a\x00\x00\x00<div><table></table></div>'
tRp292
sS'etype'
p293
S"<type 'exceptions.IOError'>"
p294
sS'date'
p295
S'Sat Nov 25 13:28:13 2017'
p296
sS'response'
p297
g64
(S's6\x16\x00\x00<div><table><tr><td style="font-weight:bold;vertical-align:top;">body</td><td style="vertical-align:top;">:</td><td><div>&lt;cStringIO.StringO object at 0x0437D0A0&gt;</div></td></tr><tr><td style="font-weight:bold;vertical-align:top;">cookies</td><td style="vertical-align:top;">:</td><td><div><table><tr><td style="font-weight:bold;vertical-align:top;">session_id_avalweb3</td><td style="vertical-align:top;">:</td><td><div>127.0.0.1-3eeec184-cbe9-4f63-837e-9be657af30f8<table><tr><td style="font-weight:bold;vertical-align:top;">comment</td><td style="vertical-align:top;">:</td><td><div></div></td></tr><tr><td style="font-weight:bold;vertical-align:top;">domain</td><td style="vertical-align:top;">:</td><td><div></div></td></tr><tr><td style="font-weight:bold;vertical-align:top;">expires</td><td style="vertical-align:top;">:</td><td><div></div></td></tr><tr><td style="font-weight:bold;vertical-align:top;">httponly</td><td style="vertical-align:top;">:</td><td><div></div></td></tr><tr><td style="font-weight:bold;vertical-align:top;">max-age</td><td style="vertical-align:top;">:</td><td><div></div></td></tr><tr><td style="font-weight:bold;vertical-align:top;">path</td><td style="vertical-align:top;">:</td><td><div>/</div></td></tr><tr><td style="font-weight:bold;vertical-align:top;">secure</td><td style="vertical-align:top;">:</td><td><div></div></td></tr><tr><td style="font-weight:bold;vertical-align:top;">version</td><td style="vertical-align:top;">:</td><td><div></div></td></tr></table></div></td></tr></table></div></td></tr><tr><td style="font-weight:bold;vertical-align:top;">delimiters</td><td style="vertical-align:top;">:</td><td><div><table><tr><td><div>{{</div></td></tr><tr><td><div>}}</div></td></tr></table></div></td></tr><tr><td style="font-weight:bold;vertical-align:top;">files</td><td style="vertical-align:top;">:</td><td><div><table></table></div></td></tr><tr><td style="font-weight:bold;vertical-align:top;">flash</td><td style="vertical-align:top;">:</td><td><div></div></td></tr><tr><td style="font-weight:bold;vertical-align:top;">form_label_separator</td><td style="vertical-align:top;">:</td><td><div>: </div></td></tr><tr><td style="font-weight:bold;vertical-align:top;">formstyle</td><td style="vertical-align:top;">:</td><td><div>table3cols</div></td></tr><tr><td style="font-weight:bold;vertical-align:top;">generic_patterns</td><td style="vertical-align:top;">:</td><td><div><table><tr><td><div>*</div></td></tr></table></div></td></tr><tr><td style="font-weight:bold;vertical-align:top;">headers</td><td style="vertical-align:top;">:</td><td><div><table><tr><td style="font-weight:bold;vertical-align:top;">X-Powered-By</td><td style="vertical-align:top;">:</td><td><div>web2py</div></td></tr></table></div></td></tr><tr><td style="font-weight:bold;vertical-align:top;">menu</td><td style="vertical-align:top;">:</td><td><div><table></table></div></td></tr><tr><td style="font-weight:bold;vertical-align:top;">meta</td><td style="vertical-align:top;">:</td><td><div><table></table></div></td></tr><tr><td style="font-weight:bold;vertical-align:top;">models_to_run</td><td style="vertical-align:top;">:</td><td><div><table><tr><td><div>^\\w+\\.py$</div></td></tr><tr><td><div>^default/\\w+\\.py$</div></td></tr><tr><td><div>^default/index/\\w+\\.py$</div></td></tr></table></div></td></tr><tr><td style="font-weight:bold;vertical-align:top;">postprocessing</td><td style="vertical-align:top;">:</td><td><div><table></table></div></td></tr><tr><td style="font-weight:bold;vertical-align:top;">session_client</td><td style="vertical-align:top;">:</td><td><div>127.0.0.1</div></td></tr><tr><td style="font-weight:bold;vertical-align:top;">session_cookie_compression_level</td><td style="vertical-align:top;">:</td><td><div>None</div></td></tr><tr><td style="font-weight:bold;vertical-align:top;">session_cookie_expires</td><td style="vertical-align:top;">:</td><td><div>None</div></td></tr><tr><td style="font-weight:bold;vertical-align:top;">session_data_name</td><td style="vertical-align:top;">:</td><td><div>session_data_avalweb3</div></td></tr><tr><td style="font-weight:bold;vertical-align:top;">session_file</td><td style="vertical-align:top;">:</td><td><div>None</div></td></tr><tr><td style="font-weight:bold;vertical-align:top;">session_filename</td><td style="vertical-align:top;">:</td><td><div>C:\\Users\\ferna\\Downloads\\web2py\\applications\\avalweb3\\sessions\\127.0.0.1-3eeec184-cbe9-4f63-837e-9be657af30f8</div></td></tr><tr><td style="font-weight:bold;vertical-align:top;">session_hash</td><td style="vertical-align:top;">:</td><td><div>c0762cbf4baf7f9af97c051e7fcb8083</div></td></tr><tr><td style="font-weight:bold;vertical-align:top;">session_id</td><td style="vertical-align:top;">:</td><td><div>127.0.0.1-3eeec184-cbe9-4f63-837e-9be657af30f8</div></td></tr><tr><td style="font-weight:bold;vertical-align:top;">session_id_name</td><td style="vertical-align:top;">:</td><td><div>session_id_avalweb3</div></td></tr><tr><td style="font-weight:bold;vertical-align:top;">session_masterapp</td><td style="vertical-align:top;">:</td><td><div>avalweb3</div></td></tr><tr><td style="font-weight:bold;vertical-align:top;">session_new</td><td style="vertical-align:top;">:</td><td><div>True</div></td></tr><tr><td style="font-weight:bold;vertical-align:top;">session_storage_type</td><td style="vertical-align:top;">:</td><td><div>file</div></td></tr><tr><td style="font-weight:bold;vertical-align:top;">status</td><td style="vertical-align:top;">:</td><td><div>200</div></td></tr><tr><td style="font-weight:bold;vertical-align:top;">view</td><td style="vertical-align:top;">:</td><td><div>default/index.html</div></td></tr></table></div>'
tRp298
sS'locals'
p299
(dp300
S'mode'
p301
S"'ab'"
p302
sg37
S"r'C:\\Users\\ferna\\Downloads\\web2py\\applications\\avalweb3\\databases\\sql.log'"
p303
sssS'traceback'
p304
S'Traceback (most recent call last):\n  File "C:\\Users\\ferna\\Downloads\\web2py\\gluon\\restricted.py", line 219, in restricted\n    exec(ccode, environment)\n  File "C:\\Users\\ferna\\Downloads\\web2py\\applications\\avalweb3\\models\\db.py", line 8, in <module>\n    Field(\'email_aluno\'),\n  File "C:\\Users\\ferna\\Downloads\\web2py\\gluon\\packages\\dal\\pydal\\base.py", line 587, in define_table\n    table = self.lazy_define_table(tablename, *fields, **args)\n  File "C:\\Users\\ferna\\Downloads\\web2py\\gluon\\packages\\dal\\pydal\\base.py", line 621, in lazy_define_table\n    polymodel=polymodel)\n  File "C:\\Users\\ferna\\Downloads\\web2py\\gluon\\packages\\dal\\pydal\\adapters\\base.py", line 797, in create_table\n    return self.migrator.create_table(*args, **kwargs)\n  File "C:\\Users\\ferna\\Downloads\\web2py\\gluon\\packages\\dal\\pydal\\migrator.py", line 275, in create_table\n    query), table)\n  File "C:\\Users\\ferna\\Downloads\\web2py\\gluon\\packages\\dal\\pydal\\migrator.py", line 483, in log\n    logfile = self.file_open(table._loggername, \'ab\')\n  File "C:\\Users\\ferna\\Downloads\\web2py\\gluon\\packages\\dal\\pydal\\migrator.py", line 491, in file_open\n    fileobj = portalocker.LockedFile(filename, mode)\n  File "C:\\Users\\ferna\\Downloads\\web2py\\gluon\\packages\\dal\\pydal\\contrib\\portalocker.py", line 185, in __init__\n    self.file = open_file(filename, mode.replace(\'w\', \'a\'))\n  File "C:\\Users\\ferna\\Downloads\\web2py\\gluon\\packages\\dal\\pydal\\contrib\\portalocker.py", line 170, in open_file\n    f = open(filename, mode)\nIOError: [Errno 2] No such file or directory: \'C:\\\\Users\\\\ferna\\\\Downloads\\\\web2py\\\\applications\\\\avalweb3\\\\databases\\\\sql.log\'\n'
p305
s.