(dp1
S'output'
p2
S''
sS'layer'
p3
S'Framework'
p4
sS'code'
p5
S''
sS'snapshot'
p6
(dp7
S'exception'
p8
(dp9
S'__module__'
p10
S"'cPickle'"
p11
sS'__getslice__'
p12
S"<method-wrapper '__getslice__' of PicklingError object>"
p13
sS'__str__'
p14
S'<bound method PicklingError.__str__ of PicklingE... attribute lookup __builtin__.function failed",)>'
p15
sS'__reduce__'
p16
S'<built-in method __reduce__ of PicklingError object>'
p17
sS'__dict__'
p18
S'{}'
p19
sS'__sizeof__'
p20
S'<built-in method __sizeof__ of PicklingError object>'
p21
sS'__weakref__'
p22
S'None'
p23
sS'message'
p24
S'"Can\'t pickle <type \'function\'>: attribute lookup __builtin__.function failed"'
p25
sS'__init__'
p26
S"<method-wrapper '__init__' of PicklingError object>"
p27
sS'__setattr__'
p28
S"<method-wrapper '__setattr__' of PicklingError object>"
p29
sS'__reduce_ex__'
p30
S'<built-in method __reduce_ex__ of PicklingError object>'
p31
sS'__new__'
p32
S'<built-in method __new__ of type object>'
p33
sS'__format__'
p34
S'<built-in method __format__ of PicklingError object>'
p35
sS'__class__'
p36
S"<class 'cPickle.PicklingError'>"
p37
sS'__doc__'
p38
S'None'
p39
sS'__getitem__'
p40
S"<method-wrapper '__getitem__' of PicklingError object>"
p41
sS'__setstate__'
p42
S'<built-in method __setstate__ of PicklingError object>'
p43
sS'__getattribute__'
p44
S"<method-wrapper '__getattribute__' of PicklingError object>"
p45
sS'args'
p46
S'("Can\'t pickle <type \'function\'>: attribute lookup __builtin__.function failed",)'
p47
sS'__subclasshook__'
p48
S'<built-in method __subclasshook__ of type object>'
p49
sS'__unicode__'
p50
S'<built-in method __unicode__ of PicklingError object>'
p51
sS'__delattr__'
p52
S"<method-wrapper '__delattr__' of PicklingError object>"
p53
sS'__repr__'
p54
S"<method-wrapper '__repr__' of PicklingError object>"
p55
sS'__hash__'
p56
S"<method-wrapper '__hash__' of PicklingError object>"
p57
ssS'evalue'
p58
S"Can't pickle <type 'function'>: attribute lookup __builtin__.function failed"
p59
sS'request'
p60
cgluon.html
XML_unpickle
p61
(S's\x99a\x00\x00<div><table><tr><td style="font-weight:bold;vertical-align:top;">ajax</td><td style="vertical-align:top;">:</td><td><div>False</div></td></tr><tr><td style="font-weight:bold;vertical-align:top;">application</td><td style="vertical-align:top;">:</td><td><div>avalweb3</div></td></tr><tr><td style="font-weight:bold;vertical-align:top;">args</td><td style="vertical-align:top;">:</td><td><div><table></table></div></td></tr><tr><td style="font-weight:bold;vertical-align:top;">cid</td><td style="vertical-align:top;">:</td><td><div>None</div></td></tr><tr><td style="font-weight:bold;vertical-align:top;">client</td><td style="vertical-align:top;">:</td><td><div>127.0.0.1</div></td></tr><tr><td style="font-weight:bold;vertical-align:top;">controller</td><td style="vertical-align:top;">:</td><td><div>provas</div></td></tr><tr><td style="font-weight:bold;vertical-align:top;">cookies</td><td style="vertical-align:top;">:</td><td><div><table><tr><td style="font-weight:bold;vertical-align:top;">session_id_admin</td><td style="vertical-align:top;">:</td><td><div>127.0.0.1-ac3ec7ce-2def-491e-bc91-d38ee061dcf5<table><tr><td style="font-weight:bold;vertical-align:top;">comment</td><td style="vertical-align:top;">:</td><td><div></div></td></tr><tr><td style="font-weight:bold;vertical-align:top;">domain</td><td style="vertical-align:top;">:</td><td><div></div></td></tr><tr><td style="font-weight:bold;vertical-align:top;">expires</td><td style="vertical-align:top;">:</td><td><div></div></td></tr><tr><td style="font-weight:bold;vertical-align:top;">httponly</td><td style="vertical-align:top;">:</td><td><div></div></td></tr><tr><td style="font-weight:bold;vertical-align:top;">max-age</td><td style="vertical-align:top;">:</td><td><div></div></td></tr><tr><td style="font-weight:bold;vertical-align:top;">path</td><td style="vertical-align:top;">:</td><td><div></div></td></tr><tr><td style="font-weight:bold;vertical-align:top;">secure</td><td style="vertical-align:top;">:</td><td><div></div></td></tr><tr><td style="font-weight:bold;vertical-align:top;">version</td><td style="vertical-align:top;">:</td><td><div></div></td></tr></table></div></td></tr><tr><td style="font-weight:bold;vertical-align:top;">session_id_avalweb3</td><td style="vertical-align:top;">:</td><td><div>127.0.0.1-91324615-6d72-464f-b37d-5e44d8f10c82<table><tr><td style="font-weight:bold;vertical-align:top;">comment</td><td style="vertical-align:top;">:</td><td><div></div></td></tr><tr><td style="font-weight:bold;vertical-align:top;">domain</td><td style="vertical-align:top;">:</td><td><div></div></td></tr><tr><td style="font-weight:bold;vertical-align:top;">expires</td><td style="vertical-align:top;">:</td><td><div></div></td></tr><tr><td style="font-weight:bold;vertical-align:top;">httponly</td><td style="vertical-align:top;">:</td><td><div></div></td></tr><tr><td style="font-weight:bold;vertical-align:top;">max-age</td><td style="vertical-align:top;">:</td><td><div></div></td></tr><tr><td style="font-weight:bold;vertical-align:top;">path</td><td style="vertical-align:top;">:</td><td><div></div></td></tr><tr><td style="font-weight:bold;vertical-align:top;">secure</td><td style="vertical-align:top;">:</td><td><div></div></td></tr><tr><td style="font-weight:bold;vertical-align:top;">version</td><td style="vertical-align:top;">:</td><td><div></div></td></tr></table></div></td></tr><tr><td style="font-weight:bold;vertical-align:top;">session_id_welcome</td><td style="vertical-align:top;">:</td><td><div>127.0.0.1-c03ae9e3-78a7-48e4-b278-7523b2badcbe<table><tr><td style="font-weight:bold;vertical-align:top;">comment</td><td style="vertical-align:top;">:</td><td><div></div></td></tr><tr><td style="font-weight:bold;vertical-align:top;">domain</td><td style="vertical-align:top;">:</td><td><div></div></td></tr><tr><td style="font-weight:bold;vertical-align:top;">expires</td><td style="vertical-align:top;">:</td><td><div></div></td></tr><tr><td style="font-weight:bold;vertical-align:top;">httponly</td><td style="vertical-align:top;">:</td><td><div></div></td></tr><tr><td style="font-weight:bold;vertical-align:top;">max-age</td><td style="vertical-align:top;">:</td><td><div></div></td></tr><tr><td style="font-weight:bold;vertical-align:top;">path</td><td style="vertical-align:top;">:</td><td><div></div></td></tr><tr><td style="font-weight:bold;vertical-align:top;">secure</td><td style="vertical-align:top;">:</td><td><div></div></td></tr><tr><td style="font-weight:bold;vertical-align:top;">version</td><td style="vertical-align:top;">:</td><td><div></div></td></tr></table></div></td></tr></table></div></td></tr><tr><td style="font-weight:bold;vertical-align:top;">env</td><td style="vertical-align:top;">:</td><td><div><table><tr><td style="font-weight:bold;vertical-align:top;">HTTP_ACCEPT</td><td style="vertical-align:top;">:</td><td><div>text/html,application/xhtml+xml,application/xml;q=0.9,image/webp,image/apng,*/*;q=0.8</div></td></tr><tr><td style="font-weight:bold;vertical-align:top;">HTTP_ACCEPT_ENCODING</td><td style="vertical-align:top;">:</td><td><div>gzip, deflate, br</div></td></tr><tr><td style="font-weight:bold;vertical-align:top;">HTTP_ACCEPT_LANGUAGE</td><td style="vertical-align:top;">:</td><td><div>pt-BR,pt;q=0.9,en-US;q=0.8,en;q=0.7</div></td></tr><tr><td style="font-weight:bold;vertical-align:top;">HTTP_CACHE_CONTROL</td><td style="vertical-align:top;">:</td><td><div>max-age=0</div></td></tr><tr><td style="font-weight:bold;vertical-align:top;">HTTP_CONNECTION</td><td style="vertical-align:top;">:</td><td><div>keep-alive</div></td></tr><tr><td style="font-weight:bold;vertical-align:top;">HTTP_COOKIE</td><td style="vertical-align:top;">:</td><td><div>session_id_welcome=127.0.0.1-c03ae9e3-78a7-48e4-b278-7523b2badcbe; session_id_admin=127.0.0.1-ac3ec7ce-2def-491e-bc91-d38ee061dcf5; session_id_avalweb3=127.0.0.1-91324615-6d72-464f-b37d-5e44d8f10c82</div></td></tr><tr><td style="font-weight:bold;vertical-align:top;">HTTP_HOST</td><td style="vertical-align:top;">:</td><td><div>127.0.0.1:8000</div></td></tr><tr><td style="font-weight:bold;vertical-align:top;">HTTP_REFERER</td><td style="vertical-align:top;">:</td><td><div>http://127.0.0.1:8000/avalweb3/controlesaluno/home</div></td></tr><tr><td style="font-weight:bold;vertical-align:top;">HTTP_UPGRADE_INSECURE_REQUESTS</td><td style="vertical-align:top;">:</td><td><div>1</div></td></tr><tr><td style="font-weight:bold;vertical-align:top;">HTTP_USER_AGENT</td><td style="vertical-align:top;">:</td><td><div>Mozilla/5.0 (Windows NT 10.0; Win64; x64) AppleWebKit/537.36 (KHTML, like Gecko) Chrome/62.0.3202.94 Safari/537.36</div></td></tr><tr><td style="font-weight:bold;vertical-align:top;">PATH_INFO</td><td style="vertical-align:top;">:</td><td><div>/avalweb3/provas/provas_dinamica</div></td></tr><tr><td style="font-weight:bold;vertical-align:top;">QUERY_STRING</td><td style="vertical-align:top;">:</td><td><div></div></td></tr><tr><td style="font-weight:bold;vertical-align:top;">REMOTE_ADDR</td><td style="vertical-align:top;">:</td><td><div>127.0.0.1</div></td></tr><tr><td style="font-weight:bold;vertical-align:top;">REMOTE_PORT</td><td style="vertical-align:top;">:</td><td><div>54987</div></td></tr><tr><td style="font-weight:bold;vertical-align:top;">REQUEST_METHOD</td><td style="vertical-align:top;">:</td><td><div>GET</div></td></tr><tr><td style="font-weight:bold;vertical-align:top;">SCRIPT_NAME</td><td style="vertical-align:top;">:</td><td><div></div></td></tr><tr><td style="font-weight:bold;vertical-align:top;">SERVER_NAME</td><td style="vertical-align:top;">:</td><td><div>DESKTOP-9DJ4MK4</div></td></tr><tr><td style="font-weight:bold;vertical-align:top;">SERVER_PORT</td><td style="vertical-align:top;">:</td><td><div>8000</div></td></tr><tr><td style="font-weight:bold;vertical-align:top;">SERVER_PROTOCOL</td><td style="vertical-align:top;">:</td><td><div>HTTP/1.1</div></td></tr><tr><td style="font-weight:bold;vertical-align:top;">SERVER_SOFTWARE</td><td style="vertical-align:top;">:</td><td><div>Rocket 1.2.6</div></td></tr><tr><td style="font-weight:bold;vertical-align:top;">app_folders</td><td style="vertical-align:top;">:</td><td><div>set([&#x27;C:\\\\Users\\\\ferna\\\\Downloads\\\\web2py\\\\applications\\\\avalweb3\\\\&#x27;, &#x27;C:\\\\Users\\\\ferna\\\\Downloads\\\\web2py\\\\applications\\\\admin\\\\&#x27;, &#x27;C:\\\\Users\\\\ferna\\\\Downloads\\\\web2py\\\\applications\\\\welcome\\\\&#x27;])</div></td></tr><tr><td style="font-weight:bold;vertical-align:top;">applications_parent</td><td style="vertical-align:top;">:</td><td><div>C:\\Users\\ferna\\Downloads\\web2py</div></td></tr><tr><td style="font-weight:bold;vertical-align:top;">cmd_args</td><td style="vertical-align:top;">:</td><td><div><table></table></div></td></tr><tr><td style="font-weight:bold;vertical-align:top;">cmd_options</td><td style="vertical-align:top;">:</td><td><div>&lt;Values at 0x30748c8: {&#x27;verbose&#x27;: False, &#x27;ip&#x27;: &#x27;127.0.0.1&#x27;, &#x27;debuglevel&#x27;: 30, &#x27;with_scheduler&#x27;: False, &#x27;shutdown_timeout&#x27;: 5, &#x27;taskbar&#x27;: False, &#x27;with_coverage&#x27;: False, &#x27;pid_filename&#x27;: &#x27;httpserver.pid&#x27;, &#x27;maxthreads&#x27;: None, &#x27;softcron&#x27;: False, &#x27;server_name&#x27;: &#x27;DESKTOP-9DJ4MK4&#x27;, &#x27;bpython&#x27;: False, &#x27;nogui&#x27;: False, &#x27;port&#x27;: 8000, &#x27;print_errors&#x27;: False, &#x27;extcron&#x27;: False, &#x27;runcron&#x27;: False, &#x27;run_system_tests&#x27;: False, &#x27;test&#x27;: None, &#x27;folder&#x27;: &#x27;C:\\\\Users\\\\ferna\\\\Downloads\\\\web2py&#x27;, &#x27;config&#x27;: &#x27;&#x27;, &#x27;minthreads&#x27;: None, &#x27;shell&#x27;: None, &#x27;run&#x27;: &#x27;&#x27;, &#x27;log_filename&#x27;: &#x27;httpserver.log&#x27;, &#x27;profiler_dir&#x27;: None, &#x27;args&#x27;: [&#x27;&#x27;], &#x27;socket_timeout&#x27;: 5, &#x27;ssl_ca_certificate&#x27;: None, &#x27;scheduler&#x27;: None, &#x27;interfaces&#x27;: None, &#x27;ssl_private_key&#x27;: &#x27;&#x27;, &#x27;gae&#x27;: None, &#x27;password&#x27;: &#x27;******&#x27;, &#x27;request_queue_size&#x27;: 5, &#x27;ssl_certificate&#x27;: &#x27;&#x27;, &#x27;cronjob&#x27;: False, &#x27;numthreads&#x27;: None, &#x27;quiet&#x27;: False, &#x27;import_models&#x27;: False, &#x27;timeout&#x27;: 10, &#x27;plain&#x27;: False, &#x27;nobanner&#x27;: False}&gt;</div></td></tr><tr><td style="font-weight:bold;vertical-align:top;">db_sessions</td><td style="vertical-align:top;">:</td><td><div>set([])</div></td></tr><tr><td style="font-weight:bold;vertical-align:top;">debugging</td><td style="vertical-align:top;">:</td><td><div>True</div></td></tr><tr><td style="font-weight:bold;vertical-align:top;">gluon_parent</td><td style="vertical-align:top;">:</td><td><div>C:\\Users\\ferna\\Downloads\\web2py</div></td></tr><tr><td style="font-weight:bold;vertical-align:top;">http_accept</td><td style="vertical-align:top;">:</td><td><div>text/html,application/xhtml+xml,application/xml;q=0.9,image/webp,image/apng,*/*;q=0.8</div></td></tr><tr><td style="font-weight:bold;vertical-align:top;">http_accept_encoding</td><td style="vertical-align:top;">:</td><td><div>gzip, deflate, br</div></td></tr><tr><td style="font-weight:bold;vertical-align:top;">http_accept_language</td><td style="vertical-align:top;">:</td><td><div>pt-BR,pt;q=0.9,en-US;q=0.8,en;q=0.7</div></td></tr><tr><td style="font-weight:bold;vertical-align:top;">http_cache_control</td><td style="vertical-align:top;">:</td><td><div>max-age=0</div></td></tr><tr><td style="font-weight:bold;vertical-align:top;">http_connection</td><td style="vertical-align:top;">:</td><td><div>keep-alive</div></td></tr><tr><td style="font-weight:bold;vertical-align:top;">http_cookie</td><td style="vertical-align:top;">:</td><td><div>session_id_welcome=127.0.0.1-c03ae9e3-78a7-48e4-b278-7523b2badcbe; session_id_admin=127.0.0.1-ac3ec7ce-2def-491e-bc91-d38ee061dcf5; session_id_avalweb3=127.0.0.1-91324615-6d72-464f-b37d-5e44d8f10c82</div></td></tr><tr><td style="font-weight:bold;vertical-align:top;">http_host</td><td style="vertical-align:top;">:</td><td><div>127.0.0.1:8000</div></td></tr><tr><td style="font-weight:bold;vertical-align:top;">http_referer</td><td style="vertical-align:top;">:</td><td><div>http://127.0.0.1:8000/avalweb3/controlesaluno/home</div></td></tr><tr><td style="font-weight:bold;vertical-align:top;">http_upgrade_insecure_requests</td><td style="vertical-align:top;">:</td><td><div>1</div></td></tr><tr><td style="font-weight:bold;vertical-align:top;">http_user_agent</td><td style="vertical-align:top;">:</td><td><div>Mozilla/5.0 (Windows NT 10.0; Win64; x64) AppleWebKit/537.36 (KHTML, like Gecko) Chrome/62.0.3202.94 Safari/537.36</div></td></tr><tr><td style="font-weight:bold;vertical-align:top;">is_jython</td><td style="vertical-align:top;">:</td><td><div>False</div></td></tr><tr><td style="font-weight:bold;vertical-align:top;">is_py2</td><td style="vertical-align:top;">:</td><td><div>True</div></td></tr><tr><td style="font-weight:bold;vertical-align:top;">is_pypy</td><td style="vertical-align:top;">:</td><td><div>False</div></td></tr><tr><td style="font-weight:bold;vertical-align:top;">is_source</td><td style="vertical-align:top;">:</td><td><div>False</div></td></tr><tr><td style="font-weight:bold;vertical-align:top;">local_hosts</td><td style="vertical-align:top;">:</td><td><div><table><tr><td><div>2804:14c:488:bc8:9438:1fcd:ac1d:ad40</div></td></tr><tr><td><div>fe80::e1e1:53f2:e4c8:4b15%2</div></td></tr><tr><td><div>2804:14c:488:bc8:1557:4f9f:dfbf:6476</div></td></tr><tr><td><div>192.168.23.2</div></td></tr><tr><td><div>DESKTOP-9DJ4MK4</div></td></tr><tr><td><div>::ffff:127.0.0.1</div></td></tr><tr><td><div>::1</div></td></tr><tr><td><div>fe80::d4d:ccdd:cd42:99c9%19</div></td></tr><tr><td><div>192.168.0.13</div></td></tr><tr><td><div>fe80::1557:4f9f:dfbf:6476%14</div></td></tr><tr><td><div>127.0.0.1</div></td></tr><tr><td><div>192.168.56.1</div></td></tr></table></div></td></tr><tr><td style="font-weight:bold;vertical-align:top;">path_info</td><td style="vertical-align:top;">:</td><td><div>/avalweb3/provas/provas_dinamica</div></td></tr><tr><td style="font-weight:bold;vertical-align:top;">query_string</td><td style="vertical-align:top;">:</td><td><div></div></td></tr><tr><td style="font-weight:bold;vertical-align:top;">remote_addr</td><td style="vertical-align:top;">:</td><td><div>127.0.0.1</div></td></tr><tr><td style="font-weight:bold;vertical-align:top;">remote_port</td><td style="vertical-align:top;">:</td><td><div>54987</div></td></tr><tr><td style="font-weight:bold;vertical-align:top;">request_method</td><td style="vertical-align:top;">:</td><td><div>GET</div></td></tr><tr><td style="font-weight:bold;vertical-align:top;">request_uri</td><td style="vertical-align:top;">:</td><td><div>/avalweb3/provas/provas_dinamica</div></td></tr><tr><td style="font-weight:bold;vertical-align:top;">script_name</td><td style="vertical-align:top;">:</td><td><div></div></td></tr><tr><td style="font-weight:bold;vertical-align:top;">server_name</td><td style="vertical-align:top;">:</td><td><div>DESKTOP-9DJ4MK4</div></td></tr><tr><td style="font-weight:bold;vertical-align:top;">server_port</td><td style="vertical-align:top;">:</td><td><div>8000</div></td></tr><tr><td style="font-weight:bold;vertical-align:top;">server_protocol</td><td style="vertical-align:top;">:</td><td><div>HTTP/1.1</div></td></tr><tr><td style="font-weight:bold;vertical-align:top;">server_software</td><td style="vertical-align:top;">:</td><td><div>Rocket 1.2.6</div></td></tr><tr><td style="font-weight:bold;vertical-align:top;">web2py_path</td><td style="vertical-align:top;">:</td><td><div>C:\\Users\\ferna\\Downloads\\web2py</div></td></tr><tr><td style="font-weight:bold;vertical-align:top;">web2py_version</td><td style="vertical-align:top;">:</td><td><div>2.15.4-stable+timestamp.2017.09.02.04.02.22</div></td></tr><tr><td style="font-weight:bold;vertical-align:top;">wsgi.errors</td><td style="vertical-align:top;">:</td><td><div>&lt;open file &#x27;&lt;stderr&gt;&#x27;, mode &#x27;w&#x27; at 0x0213D0D0&gt;</div></td></tr><tr><td style="font-weight:bold;vertical-align:top;">wsgi.file_wrapper</td><td style="vertical-align:top;">:</td><td><div>&lt;class wsgiref.util.FileWrapper at 0x03134B20&gt;</div></td></tr><tr><td style="font-weight:bold;vertical-align:top;">wsgi.input</td><td style="vertical-align:top;">:</td><td><div>&lt;socket._fileobject object at 0x096D2FB0&gt;</div></td></tr><tr><td style="font-weight:bold;vertical-align:top;">wsgi.multiprocess</td><td style="vertical-align:top;">:</td><td><div>False</div></td></tr><tr><td style="font-weight:bold;vertical-align:top;">wsgi.multithread</td><td style="vertical-align:top;">:</td><td><div>True</div></td></tr><tr><td style="font-weight:bold;vertical-align:top;">wsgi.run_once</td><td style="vertical-align:top;">:</td><td><div>False</div></td></tr><tr><td style="font-weight:bold;vertical-align:top;">wsgi.url_scheme</td><td style="vertical-align:top;">:</td><td><div>http</div></td></tr><tr><td style="font-weight:bold;vertical-align:top;">wsgi.version</td><td style="vertical-align:top;">:</td><td><div><table><tr><td><div>1</div></td></tr><tr><td><div>0</div></td></tr></table></div></td></tr><tr><td style="font-weight:bold;vertical-align:top;">wsgi_errors</td><td style="vertical-align:top;">:</td><td><div>&lt;open file &#x27;&lt;stderr&gt;&#x27;, mode &#x27;w&#x27; at 0x0213D0D0&gt;</div></td></tr><tr><td style="font-weight:bold;vertical-align:top;">wsgi_file_wrapper</td><td style="vertical-align:top;">:</td><td><div>&lt;class wsgiref.util.FileWrapper at 0x03134B20&gt;</div></td></tr><tr><td style="font-weight:bold;vertical-align:top;">wsgi_input</td><td style="vertical-align:top;">:</td><td><div>&lt;socket._fileobject object at 0x096D2FB0&gt;</div></td></tr><tr><td style="font-weight:bold;vertical-align:top;">wsgi_multiprocess</td><td style="vertical-align:top;">:</td><td><div>False</div></td></tr><tr><td style="font-weight:bold;vertical-align:top;">wsgi_multithread</td><td style="vertical-align:top;">:</td><td><div>True</div></td></tr><tr><td style="font-weight:bold;vertical-align:top;">wsgi_run_once</td><td style="vertical-align:top;">:</td><td><div>False</div></td></tr><tr><td style="font-weight:bold;vertical-align:top;">wsgi_url_scheme</td><td style="vertical-align:top;">:</td><td><div>http</div></td></tr><tr><td style="font-weight:bold;vertical-align:top;">wsgi_version</td><td style="vertical-align:top;">:</td><td><div><table><tr><td><div>1</div></td></tr><tr><td><div>0</div></td></tr></table></div></td></tr></table></div></td></tr><tr><td style="font-weight:bold;vertical-align:top;">extension</td><td style="vertical-align:top;">:</td><td><div>html</div></td></tr><tr><td style="font-weight:bold;vertical-align:top;">folder</td><td style="vertical-align:top;">:</td><td><div>C:\\Users\\ferna\\Downloads\\web2py\\applications\\avalweb3\\</div></td></tr><tr><td style="font-weight:bold;vertical-align:top;">function</td><td style="vertical-align:top;">:</td><td><div>provas_dinamica</div></td></tr><tr><td style="font-weight:bold;vertical-align:top;">global_settings</td><td style="vertical-align:top;">:</td><td><div><table><tr><td style="font-weight:bold;vertical-align:top;">app_folders</td><td style="vertical-align:top;">:</td><td><div>set([&#x27;C:\\\\Users\\\\ferna\\\\Downloads\\\\web2py\\\\applications\\\\avalweb3\\\\&#x27;, &#x27;C:\\\\Users\\\\ferna\\\\Downloads\\\\web2py\\\\applications\\\\admin\\\\&#x27;, &#x27;C:\\\\Users\\\\ferna\\\\Downloads\\\\web2py\\\\applications\\\\welcome\\\\&#x27;])</div></td></tr><tr><td style="font-weight:bold;vertical-align:top;">applications_parent</td><td style="vertical-align:top;">:</td><td><div>C:\\Users\\ferna\\Downloads\\web2py</div></td></tr><tr><td style="font-weight:bold;vertical-align:top;">cmd_args</td><td style="vertical-align:top;">:</td><td><div><table></table></div></td></tr><tr><td style="font-weight:bold;vertical-align:top;">cmd_options</td><td style="vertical-align:top;">:</td><td><div>&lt;Values at 0x30748c8: {&#x27;verbose&#x27;: False, &#x27;ip&#x27;: &#x27;127.0.0.1&#x27;, &#x27;debuglevel&#x27;: 30, &#x27;with_scheduler&#x27;: False, &#x27;shutdown_timeout&#x27;: 5, &#x27;taskbar&#x27;: False, &#x27;with_coverage&#x27;: False, &#x27;pid_filename&#x27;: &#x27;httpserver.pid&#x27;, &#x27;maxthreads&#x27;: None, &#x27;softcron&#x27;: False, &#x27;server_name&#x27;: &#x27;DESKTOP-9DJ4MK4&#x27;, &#x27;bpython&#x27;: False, &#x27;nogui&#x27;: False, &#x27;port&#x27;: 8000, &#x27;print_errors&#x27;: False, &#x27;extcron&#x27;: False, &#x27;runcron&#x27;: False, &#x27;run_system_tests&#x27;: False, &#x27;test&#x27;: None, &#x27;folder&#x27;: &#x27;C:\\\\Users\\\\ferna\\\\Downloads\\\\web2py&#x27;, &#x27;config&#x27;: &#x27;&#x27;, &#x27;minthreads&#x27;: None, &#x27;shell&#x27;: None, &#x27;run&#x27;: &#x27;&#x27;, &#x27;log_filename&#x27;: &#x27;httpserver.log&#x27;, &#x27;profiler_dir&#x27;: None, &#x27;args&#x27;: [&#x27;&#x27;], &#x27;socket_timeout&#x27;: 5, &#x27;ssl_ca_certificate&#x27;: None, &#x27;scheduler&#x27;: None, &#x27;interfaces&#x27;: None, &#x27;ssl_private_key&#x27;: &#x27;&#x27;, &#x27;gae&#x27;: None, &#x27;password&#x27;: &#x27;******&#x27;, &#x27;request_queue_size&#x27;: 5, &#x27;ssl_certificate&#x27;: &#x27;&#x27;, &#x27;cronjob&#x27;: False, &#x27;numthreads&#x27;: None, &#x27;quiet&#x27;: False, &#x27;import_models&#x27;: False, &#x27;timeout&#x27;: 10, &#x27;plain&#x27;: False, &#x27;nobanner&#x27;: False}&gt;</div></td></tr><tr><td style="font-weight:bold;vertical-align:top;">db_sessions</td><td style="vertical-align:top;">:</td><td><div>set([])</div></td></tr><tr><td style="font-weight:bold;vertical-align:top;">debugging</td><td style="vertical-align:top;">:</td><td><div>True</div></td></tr><tr><td style="font-weight:bold;vertical-align:top;">gluon_parent</td><td style="vertical-align:top;">:</td><td><div>C:\\Users\\ferna\\Downloads\\web2py</div></td></tr><tr><td style="font-weight:bold;vertical-align:top;">is_jython</td><td style="vertical-align:top;">:</td><td><div>False</div></td></tr><tr><td style="font-weight:bold;vertical-align:top;">is_py2</td><td style="vertical-align:top;">:</td><td><div>True</div></td></tr><tr><td style="font-weight:bold;vertical-align:top;">is_pypy</td><td style="vertical-align:top;">:</td><td><div>False</div></td></tr><tr><td style="font-weight:bold;vertical-align:top;">is_source</td><td style="vertical-align:top;">:</td><td><div>False</div></td></tr><tr><td style="font-weight:bold;vertical-align:top;">local_hosts</td><td style="vertical-align:top;">:</td><td><div><table><tr><td><div>2804:14c:488:bc8:9438:1fcd:ac1d:ad40</div></td></tr><tr><td><div>fe80::e1e1:53f2:e4c8:4b15%2</div></td></tr><tr><td><div>2804:14c:488:bc8:1557:4f9f:dfbf:6476</div></td></tr><tr><td><div>192.168.23.2</div></td></tr><tr><td><div>DESKTOP-9DJ4MK4</div></td></tr><tr><td><div>::ffff:127.0.0.1</div></td></tr><tr><td><div>::1</div></td></tr><tr><td><div>fe80::d4d:ccdd:cd42:99c9%19</div></td></tr><tr><td><div>192.168.0.13</div></td></tr><tr><td><div>fe80::1557:4f9f:dfbf:6476%14</div></td></tr><tr><td><div>127.0.0.1</div></td></tr><tr><td><div>192.168.56.1</div></td></tr></table></div></td></tr><tr><td style="font-weight:bold;vertical-align:top;">web2py_version</td><td style="vertical-align:top;">:</td><td><div>2.15.4-stable+timestamp.2017.09.02.04.02.22</div></td></tr></table></div></td></tr><tr><td style="font-weight:bold;vertical-align:top;">is_https</td><td style="vertical-align:top;">:</td><td><div>False</div></td></tr><tr><td style="font-weight:bold;vertical-align:top;">is_local</td><td style="vertical-align:top;">:</td><td><div>True</div></td></tr><tr><td style="font-weight:bold;vertical-align:top;">is_restful</td><td style="vertical-align:top;">:</td><td><div>False</div></td></tr><tr><td style="font-weight:bold;vertical-align:top;">is_scheduler</td><td style="vertical-align:top;">:</td><td><div>False</div></td></tr><tr><td style="font-weight:bold;vertical-align:top;">is_shell</td><td style="vertical-align:top;">:</td><td><div>False</div></td></tr><tr><td style="font-weight:bold;vertical-align:top;">now</td><td style="vertical-align:top;">:</td><td><div>datetime.datetime(2017, 11, 26, 19, 48, 39, 308000)</div></td></tr><tr><td style="font-weight:bold;vertical-align:top;">raw_args</td><td style="vertical-align:top;">:</td><td><div></div></td></tr><tr><td style="font-weight:bold;vertical-align:top;">raw_extension</td><td style="vertical-align:top;">:</td><td><div>None</div></td></tr><tr><td style="font-weight:bold;vertical-align:top;">url</td><td style="vertical-align:top;">:</td><td><div>/avalweb3/provas/provas_dinamica</div></td></tr><tr><td style="font-weight:bold;vertical-align:top;">utcnow</td><td style="vertical-align:top;">:</td><td><div>datetime.datetime(2017, 11, 26, 21, 48, 39, 308000)</div></td></tr><tr><td style="font-weight:bold;vertical-align:top;">wsgi</td><td style="vertical-align:top;">:</td><td><div>&lt;gluon.main.LazyWSGI object at 0x09930430&gt;</div></td></tr></table></div>'
tRp62
sS'frames'
p63
(lp64
(dp65
S'file'
p66
S'C:\\Users\\ferna\\Downloads\\web2py\\gluon\\main.py'
p67
sS'dump'
p68
(dp69
S'session._try_store_in_cookie_or_file'
p70
S"<bound method Session._try_store_in_cookie_or_fi...3a6c', '25f7fda0-ce89-45e9-bacf-bb09ef2a2b69']}>>"
p71
sS'session'
p72
S"<Storage {'user_prof': None, '_formkey[aluno/cre...13a6c', '25f7fda0-ce89-45e9-bacf-bb09ef2a2b69']}>"
p73
sS'request'
p74
S"<Storage {'_vars': None, 'function': 'provas_din...a\\\\Downloads\\\\web2py\\\\applications\\\\avalweb3\\\\'}>"
p75
sS'response'
p76
S"<Storage {'body': <cStringIO.StringO object at 0...3EBBF30>, 'view': 'provas/provas_dinamica.html'}>"
p77
ssS'lnum'
p78
I479
sS'lines'
p79
(dp80
I480
S''
sI481
S'                    # Set header so client can distinguish component requests.'
p81
sI482
S'                    if request.cid:'
p82
sI483
S'                        http_response.headers.setdefault('
p83
sI474
S'                    # ##################################################'
p84
sI475
S'                    # if session not in db try store session on filesystem'
p85
sI476
S'                    # this must be done after trying to commit database!'
p86
sI477
S'                    # ##################################################'
p87
sI478
S'                    if not env.web2py_disable_session:'
p88
sI479
S'                        session._try_store_in_cookie_or_file(request, response)'
p89
ssS'call'
p90
S"(environ={'HTTP_ACCEPT': 'text/html,application/xhtml+xml,application/xml;q=0.9,image/webp,image/apng,*/*;q=0.8', 'HTTP_ACCEPT_ENCODING': 'gzip, deflate, br', 'HTTP_ACCEPT_LANGUAGE': 'pt-BR,pt;q=0.9,en-US;q=0.8,en;q=0.7', 'HTTP_CACHE_CONTROL': 'max-age=0', 'HTTP_CONNECTION': 'keep-alive', 'HTTP_COOKIE': 'session_id_welcome=127.0.0.1-c03ae9e3-78a7-48e4-...b3=127.0.0.1-91324615-6d72-464f-b37d-5e44d8f10c82', 'HTTP_HOST': '127.0.0.1:8000', 'HTTP_REFERER': 'http://127.0.0.1:8000/avalweb3/controlesaluno/home', 'HTTP_UPGRADE_INSECURE_REQUESTS': '1', 'HTTP_USER_AGENT': 'Mozilla/5.0 (Windows NT 10.0; Win64; x64) AppleW...ML, like Gecko) Chrome/62.0.3202.94 Safari/537.36', ...}, responder=<function responder2>)"
p91
sS'func'
p92
S'wsgibase'
p93
sa(dp94
g66
S'C:\\Users\\ferna\\Downloads\\web2py\\gluon\\globals.py'
p95
sg68
(dp96
S'self._try_store_in_file'
p97
S"<bound method Session._try_store_in_file of <Sto...3a6c', '25f7fda0-ce89-45e9-bacf-bb09ef2a2b69']}>>"
p98
sS'self'
p99
S"<Storage {'user_prof': None, '_formkey[aluno/cre...13a6c', '25f7fda0-ce89-45e9-bacf-bb09ef2a2b69']}>"
p100
sS'request'
p101
S"<Storage {'_vars': None, 'function': 'provas_din...a\\\\Downloads\\\\web2py\\\\applications\\\\avalweb3\\\\'}>"
p102
sS'response'
p103
S"<Storage {'body': <cStringIO.StringO object at 0...3EBBF30>, 'view': 'provas/provas_dinamica.html'}>"
p104
ssg78
I1229
sg79
(dp105
I1224
S'        self.save_session_id_cookie()'
p106
sI1225
S'        return True'
p107
sI1226
S''
sI1227
S'    def _try_store_in_cookie_or_file(self, request, response):'
p108
sI1228
S"        if response.session_storage_type == 'file':"
p109
sI1229
S'            return self._try_store_in_file(request, response)'
p110
sI1230
S"        if response.session_storage_type == 'cookie':"
p111
sI1231
S'            return self._try_store_in_cookie(request, response)'
p112
sI1232
S''
sI1233
S'    def _try_store_in_file(self, request, response):'
p113
ssg90
S"(self=<Storage {'user_prof': None, '_formkey[aluno/cre...13a6c', '25f7fda0-ce89-45e9-bacf-bb09ef2a2b69']}>, request=<Storage {'_vars': None, 'function': 'provas_din...a\\\\Downloads\\\\web2py\\\\applications\\\\avalweb3\\\\'}>, response=<Storage {'body': <cStringIO.StringO object at 0...3EBBF30>, 'view': 'provas/provas_dinamica.html'}>)"
p114
sg92
S'_try_store_in_cookie_or_file'
p115
sa(dp116
g66
S'C:\\Users\\ferna\\Downloads\\web2py\\gluon\\globals.py'
p117
sg68
(dp118
S'self._unchanged'
p119
S"<bound method Session._unchanged of <Storage {'u...3a6c', '25f7fda0-ce89-45e9-bacf-bb09ef2a2b69']}>>"
p120
sS'self'
p121
S"<Storage {'user_prof': None, '_formkey[aluno/cre...13a6c', '25f7fda0-ce89-45e9-bacf-bb09ef2a2b69']}>"
p122
sS'response'
p123
S"<Storage {'body': <cStringIO.StringO object at 0...3EBBF30>, 'view': 'provas/provas_dinamica.html'}>"
p124
ssg78
I1238
sg79
(dp125
I1233
S'    def _try_store_in_file(self, request, response):'
p126
sI1234
S'        try:'
p127
sI1235
S'            if (not response.session_id or'
p128
sI1236
S'                not response.session_filename or'
p129
sI1237
S'                self._forget'
p130
sI1238
S'                    or self._unchanged(response)):'
p131
sI1239
S'                # self.clear_session_cookies()'
p132
sI1240
S'                return False'
p133
sI1241
S'            else:'
p134
sI1242
S'                if response.session_new or not response.session_file:'
p135
ssg90
S"(self=<Storage {'user_prof': None, '_formkey[aluno/cre...13a6c', '25f7fda0-ce89-45e9-bacf-bb09ef2a2b69']}>, request=<Storage {'_vars': None, 'function': 'provas_din...a\\\\Downloads\\\\web2py\\\\applications\\\\avalweb3\\\\'}>, response=<Storage {'body': <cStringIO.StringO object at 0...3EBBF30>, 'view': 'provas/provas_dinamica.html'}>)"
p136
sg92
S'_try_store_in_file'
p137
sa(dp138
g66
S'C:\\Users\\ferna\\Downloads\\web2py\\gluon\\globals.py'
p139
sg68
(dp140
S'global pickle'
p141
S"<module 'cPickle' (built-in)>"
p142
sS'self'
p143
S"<Storage {'user_prof': None, '_formkey[aluno/cre...13a6c', '25f7fda0-ce89-45e9-bacf-bb09ef2a2b69']}>"
p144
sS'pickle.HIGHEST_PROTOCOL'
p145
S'2'
sS'session_pickled'
p146
S'undefined'
p147
sS'pickle.dumps'
p148
S'<built-in function dumps>'
p149
ssg78
I1181
sg79
(dp150
I1184
S'        return response.session_hash == session_hash'
p151
sI1185
S''
sI1176
S"            internal = ['_last_timestamp', '_secure', '_start_timestamp']"
p152
sI1177
S'            for item in self.keys():'
p153
sI1178
S'                if item not in internal:'
p154
sI1179
S'                    return False'
p155
sI1180
S'            return True'
p156
sI1181
S'        session_pickled = pickle.dumps(self, pickle.HIGHEST_PROTOCOL)'
p157
sI1182
S'        response.session_pickled = session_pickled'
p158
sI1183
S'        session_hash = hashlib.md5(session_pickled).hexdigest()'
p159
ssg90
S"(self=<Storage {'user_prof': None, '_formkey[aluno/cre...13a6c', '25f7fda0-ce89-45e9-bacf-bb09ef2a2b69']}>, response=<Storage {'body': <cStringIO.StringO object at 0...3EBBF30>, 'view': 'provas/provas_dinamica.html'}>)"
p160
sg92
S'_unchanged'
p161
sasS'pyver'
p162
S'Python 2.7.9: C:\\Users\\ferna\\Downloads\\web2py\\web2py.exe (prefix: )'
p163
sS'session'
p164
g61
(S's\xc2\x06\x00\x00<div><table><tr><td style="font-weight:bold;vertical-align:top;">dinamica</td><td style="vertical-align:top;">:</td><td><div>1L</div></td></tr><tr><td style="font-weight:bold;vertical-align:top;">provaComecou</td><td style="vertical-align:top;">:</td><td><div>True</div></td></tr><tr><td style="font-weight:bold;vertical-align:top;">questaoForm</td><td style="vertical-align:top;">:</td><td><div><form action="#" enctype="multipart/form-data" method="post"><table><tr id="no_table_questao1__row"><td class="w2p_fl"><label class="" for="no_table_questao1" id="no_table_questao1__label">Questao1: </label></td><td class="w2p_fw"><table class="generic-widget web2py_radiowidget" id="no_table_questao1" name="questao1"><tr><td><input id="questao1certo" name="questao1" type="radio" value="certo" /><label for="questao1certo">a</label></td></tr><tr><td><input id="questao1errado1" name="questao1" type="radio" value="errado1" /><label for="questao1errado1">a</label></td></tr><tr><td><input id="questao1errado2" name="questao1" type="radio" value="errado2" /><label for="questao1errado2">a</label></td></tr><tr><td><input id="questao1errado3" name="questao1" type="radio" value="errado3" /><label for="questao1errado3">a</label></td></tr></table></td><td class="w2p_fc"></td></tr><tr id="submit_record__row"><td class="w2p_fl"></td><td class="w2p_fw"><input type="submit" value="Submit" /></td><td class="w2p_fc"></td></tr></table></form></div></td></tr><tr><td style="font-weight:bold;vertical-align:top;">user_aluno</td><td style="vertical-align:top;">:</td><td><div>1L</div></td></tr><tr><td style="font-weight:bold;vertical-align:top;">user_prof</td><td style="vertical-align:top;">:</td><td><div>None</div></td></tr></table></div>'
tRp165
sS'etype'
p166
S"<class 'cPickle.PicklingError'>"
p167
sS'date'
p168
S'Sun Nov 26 19:48:39 2017'
p169
sS'response'
p170
g61
(S's\x04\x1b\x00\x00<div><table><tr><td style="font-weight:bold;vertical-align:top;">body</td><td style="vertical-align:top;">:</td><td><div>&lt;cStringIO.StringO object at 0x097FE460&gt;</div></td></tr><tr><td style="font-weight:bold;vertical-align:top;">cookies</td><td style="vertical-align:top;">:</td><td><div><table><tr><td style="font-weight:bold;vertical-align:top;">session_id_avalweb3</td><td style="vertical-align:top;">:</td><td><div>127.0.0.1-91324615-6d72-464f-b37d-5e44d8f10c82<table><tr><td style="font-weight:bold;vertical-align:top;">comment</td><td style="vertical-align:top;">:</td><td><div></div></td></tr><tr><td style="font-weight:bold;vertical-align:top;">domain</td><td style="vertical-align:top;">:</td><td><div></div></td></tr><tr><td style="font-weight:bold;vertical-align:top;">expires</td><td style="vertical-align:top;">:</td><td><div></div></td></tr><tr><td style="font-weight:bold;vertical-align:top;">httponly</td><td style="vertical-align:top;">:</td><td><div></div></td></tr><tr><td style="font-weight:bold;vertical-align:top;">max-age</td><td style="vertical-align:top;">:</td><td><div></div></td></tr><tr><td style="font-weight:bold;vertical-align:top;">path</td><td style="vertical-align:top;">:</td><td><div>/</div></td></tr><tr><td style="font-weight:bold;vertical-align:top;">secure</td><td style="vertical-align:top;">:</td><td><div></div></td></tr><tr><td style="font-weight:bold;vertical-align:top;">version</td><td style="vertical-align:top;">:</td><td><div></div></td></tr></table></div></td></tr></table></div></td></tr><tr><td style="font-weight:bold;vertical-align:top;">delimiters</td><td style="vertical-align:top;">:</td><td><div><table><tr><td><div>{{</div></td></tr><tr><td><div>}}</div></td></tr></table></div></td></tr><tr><td style="font-weight:bold;vertical-align:top;">files</td><td style="vertical-align:top;">:</td><td><div><table><tr><td><div>/avalweb3/static/js/jquery.js</div></td></tr><tr><td><div>/avalweb3/static/css/calendar.css</div></td></tr><tr><td><div>/avalweb3/static/js/calendar.js</div></td></tr><tr><td><div>/avalweb3/static/js/web2py.js</div></td></tr></table></div></td></tr><tr><td style="font-weight:bold;vertical-align:top;">flash</td><td style="vertical-align:top;">:</td><td><div></div></td></tr><tr><td style="font-weight:bold;vertical-align:top;">form_label_separator</td><td style="vertical-align:top;">:</td><td><div>: </div></td></tr><tr><td style="font-weight:bold;vertical-align:top;">formstyle</td><td style="vertical-align:top;">:</td><td><div>table3cols</div></td></tr><tr><td style="font-weight:bold;vertical-align:top;">generic_patterns</td><td style="vertical-align:top;">:</td><td><div><table><tr><td><div>*</div></td></tr></table></div></td></tr><tr><td style="font-weight:bold;vertical-align:top;">headers</td><td style="vertical-align:top;">:</td><td><div><table><tr><td style="font-weight:bold;vertical-align:top;">Cache-Control</td><td style="vertical-align:top;">:</td><td><div>no-store, no-cache, must-revalidate, post-check=0, pre-check=0</div></td></tr><tr><td style="font-weight:bold;vertical-align:top;">Content-Type</td><td style="vertical-align:top;">:</td><td><div>text/html; charset=utf-8</div></td></tr><tr><td style="font-weight:bold;vertical-align:top;">Expires</td><td style="vertical-align:top;">:</td><td><div>Sun, 26 Nov 2017 21:48:39 GMT</div></td></tr><tr><td style="font-weight:bold;vertical-align:top;">Pragma</td><td style="vertical-align:top;">:</td><td><div>no-cache</div></td></tr><tr><td style="font-weight:bold;vertical-align:top;">X-Powered-By</td><td style="vertical-align:top;">:</td><td><div>web2py</div></td></tr></table></div></td></tr><tr><td style="font-weight:bold;vertical-align:top;">menu</td><td style="vertical-align:top;">:</td><td><div><table><tr><td><div><table><tr><td><div>Home</div></td></tr><tr><td><div>False</div></td></tr><tr><td><div>/avalweb3/default/index</div></td></tr></table></div></td></tr><tr><td><div><table><tr><td><div>Sair</div></td></tr><tr><td><div>False</div></td></tr><tr><td><div>/avalweb3/logout/logout</div></td></tr></table></div></td></tr></table></div></td></tr><tr><td style="font-weight:bold;vertical-align:top;">meta</td><td style="vertical-align:top;">:</td><td><div><table></table></div></td></tr><tr><td style="font-weight:bold;vertical-align:top;">models_to_run</td><td style="vertical-align:top;">:</td><td><div><table><tr><td><div>^\\w+\\.py$</div></td></tr><tr><td><div>^provas/\\w+\\.py$</div></td></tr><tr><td><div>^provas/provas_dinamica/\\w+\\.py$</div></td></tr></table></div></td></tr><tr><td style="font-weight:bold;vertical-align:top;">postprocessing</td><td style="vertical-align:top;">:</td><td><div><table></table></div></td></tr><tr><td style="font-weight:bold;vertical-align:top;">session_client</td><td style="vertical-align:top;">:</td><td><div>127.0.0.1</div></td></tr><tr><td style="font-weight:bold;vertical-align:top;">session_cookie_compression_level</td><td style="vertical-align:top;">:</td><td><div>None</div></td></tr><tr><td style="font-weight:bold;vertical-align:top;">session_cookie_expires</td><td style="vertical-align:top;">:</td><td><div>None</div></td></tr><tr><td style="font-weight:bold;vertical-align:top;">session_data_name</td><td style="vertical-align:top;">:</td><td><div>session_data_avalweb3</div></td></tr><tr><td style="font-weight:bold;vertical-align:top;">session_filename</td><td style="vertical-align:top;">:</td><td><div>C:\\Users\\ferna\\Downloads\\web2py\\applications\\avalweb3\\sessions\\127.0.0.1-91324615-6d72-464f-b37d-5e44d8f10c82</div></td></tr><tr><td style="font-weight:bold;vertical-align:top;">session_hash</td><td style="vertical-align:top;">:</td><td><div>fc7941aac93e1a519e075c7add854b14</div></td></tr><tr><td style="font-weight:bold;vertical-align:top;">session_id</td><td style="vertical-align:top;">:</td><td><div>127.0.0.1-91324615-6d72-464f-b37d-5e44d8f10c82</div></td></tr><tr><td style="font-weight:bold;vertical-align:top;">session_id_name</td><td style="vertical-align:top;">:</td><td><div>session_id_avalweb3</div></td></tr><tr><td style="font-weight:bold;vertical-align:top;">session_locked</td><td style="vertical-align:top;">:</td><td><div>False</div></td></tr><tr><td style="font-weight:bold;vertical-align:top;">session_masterapp</td><td style="vertical-align:top;">:</td><td><div>avalweb3</div></td></tr><tr><td style="font-weight:bold;vertical-align:top;">session_new</td><td style="vertical-align:top;">:</td><td><div>False</div></td></tr><tr><td style="font-weight:bold;vertical-align:top;">session_storage_type</td><td style="vertical-align:top;">:</td><td><div>file</div></td></tr><tr><td style="font-weight:bold;vertical-align:top;">status</td><td style="vertical-align:top;">:</td><td><div>200</div></td></tr><tr><td style="font-weight:bold;vertical-align:top;">view</td><td style="vertical-align:top;">:</td><td><div>provas/provas_dinamica.html</div></td></tr></table></div>'
tRp171
sS'locals'
p172
(dp173
S'self'
p174
S"<Storage {'user_prof': None, '_formkey[aluno/cre...13a6c', '25f7fda0-ce89-45e9-bacf-bb09ef2a2b69']}>"
p175
sg170
S"<Storage {'body': <cStringIO.StringO object at 0...3EBBF30>, 'view': 'provas/provas_dinamica.html'}>"
p176
sssS'traceback'
p177
S'Traceback (most recent call last):\n  File "C:\\Users\\ferna\\Downloads\\web2py\\gluon\\main.py", line 479, in wsgibase\n    session._try_store_in_cookie_or_file(request, response)\n  File "C:\\Users\\ferna\\Downloads\\web2py\\gluon\\globals.py", line 1229, in _try_store_in_cookie_or_file\n    return self._try_store_in_file(request, response)\n  File "C:\\Users\\ferna\\Downloads\\web2py\\gluon\\globals.py", line 1238, in _try_store_in_file\n    or self._unchanged(response)):\n  File "C:\\Users\\ferna\\Downloads\\web2py\\gluon\\globals.py", line 1181, in _unchanged\n    session_pickled = pickle.dumps(self, pickle.HIGHEST_PROTOCOL)\nPicklingError: Can\'t pickle <type \'function\'>: attribute lookup __builtin__.function failed\n'
p178
s.