(dp1
S'output'
p2
S'<class \'_mysql_exceptions.OperationalError\'> (1828, "Cannot drop column \'user_prof\': needed in a foreign key constraint \'FK_professor_user_prof__constraint\'")'
p3
sS'layer'
p4
S'C:\\Users\\ferna\\Downloads\\web2py\\applications\\avalweb3\\models\\db.py'
p5
sS'code'
p6
S'<code object <module> at 04A0C5C0, file "C:\\Users\\ferna\\Downloads\\web2py\\applications\\avalweb3\\models\\db.py", line 1>'
p7
sS'snapshot'
p8
(dp9
sS'traceback'
p10
S'Traceback (most recent call last):\n  File "C:\\Users\\ferna\\Downloads\\web2py\\gluon\\restricted.py", line 219, in restricted\n    exec(ccode, environment)\n  File "C:\\Users\\ferna\\Downloads\\web2py\\applications\\avalweb3\\models\\db.py", line 18, in <module>\n    primarykey=[\'user_prof\']\n  File "C:\\Users\\ferna\\Downloads\\web2py\\gluon\\packages\\dal\\pydal\\base.py", line 587, in define_table\n    table = self.lazy_define_table(tablename, *fields, **args)\n  File "C:\\Users\\ferna\\Downloads\\web2py\\gluon\\packages\\dal\\pydal\\base.py", line 621, in lazy_define_table\n    polymodel=polymodel)\n  File "C:\\Users\\ferna\\Downloads\\web2py\\gluon\\packages\\dal\\pydal\\adapters\\base.py", line 797, in create_table\n    return self.migrator.create_table(*args, **kwargs)\n  File "C:\\Users\\ferna\\Downloads\\web2py\\gluon\\packages\\dal\\pydal\\migrator.py", line 314, in create_table\n    fake_migrate=fake_migrate\n  File "C:\\Users\\ferna\\Downloads\\web2py\\gluon\\packages\\dal\\pydal\\migrator.py", line 447, in migrate_table\n    self.adapter.execute(sub_query)\n  File "C:\\Users\\ferna\\Downloads\\web2py\\gluon\\packages\\dal\\pydal\\adapters\\__init__.py", line 67, in wrap\n    return f(*args, **kwargs)\n  File "C:\\Users\\ferna\\Downloads\\web2py\\gluon\\packages\\dal\\pydal\\adapters\\base.py", line 412, in execute\n    rv = self.cursor.execute(command, *args[1:], **kwargs)\n  File "MySQLdb/cursors.py", line 205, in execute\n  File "MySQLdb/connections.py", line 36, in defaulterrorhandler\nOperationalError: (1828, "Cannot drop column \'user_prof\': needed in a foreign key constraint \'FK_professor_user_prof__constraint\'")\n'
p11
s.