(dp1
S'output'
p2
S"<type 'exceptions.AttributeError'> 'bool' object has no attribute 'encode'"
p3
sS'layer'
p4
S'C:\\Users\\Bruno\\Downloads\\web2py\\applications\\avalweb3\\views\\controlesaluno/home.html'
p5
sS'code'
p6
S'response.write(\'<!DOCTYPE html>\\r\\n<html>\\r\\n  <head>\\r\\n    <meta charset="utf-8">\\r\\n    <meta http-equiv="X-UA-Compatible" content="IE=edge,chrome=1">\\r\\n    <meta name="viewport" content="width=device-width, initial-scale=1.0" />\\r\\n    <meta name="apple-mobile-web-app-capable" content="yes" />\\r\\n    <link href="\', escape=False)\nresponse.write(URL(\'static\',\'css/calendar.css\'))\nresponse.write(\'" rel="stylesheet" type="text/css"/>\\r\\n    <link href="\', escape=False)\nresponse.write(URL(\'static\',\'css/web2py.css\'))\nresponse.write(\'" rel="stylesheet" type="text/css"/>\\r\\n    <link href="\', escape=False)\nresponse.write(URL(\'static\',\'css/stupid.css\'))\nresponse.write(\'" rel="stylesheet" type="text/css"/>\\r\\n    <link href="\', escape=False)\nresponse.write(URL(\'static\',\'css/examples.css\'))\nresponse.write(\'" rel="stylesheet" type="text/css"/>\\r\\n    <link rel="stylesheet" href="https://maxcdn.bootstrapcdn.com/font-awesome/4.5.0/css/font-awesome.min.css">\\r\\n    <link rel="shortcut icon" href="\', escape=False)\nresponse.write(URL(\'static\',\'images/favicon.ico\'))\nresponse.write(\'" type="image/x-icon">\\r\\n    <link rel="apple-touch-icon" href="\', escape=False)\nresponse.write(URL(\'static\',\'images/favicon.png\'))\nresponse.write(\'">\\r\\n    \', escape=False)\nleft_sidebar_enabled = globals().get(\'left_sidebar_enabled\', False)\nright_sidebar_enabled = globals().get(\'right_sidebar_enabled\', False)\nmiddle_column = {0: \'fill\', 1: \'threequarters\', 2: \'half\'}[\n(left_sidebar_enabled and 1 or 0)+(right_sidebar_enabled and 1 or 0)]\nresponse.write(\'\\r\\n    \', escape=False)\nresponse.write(\'<script type="text/javascript"><!--\\r\\n    // These variables are used by the web2py_ajax_init function in web2py_ajax.js (which is loaded below).\\r\\n    \', escape=False)\nresponse.write(ASSIGNJS(\nw2p_ajax_confirm_message = T(\'Are you sure you want to delete this object?\'),\nw2p_ajax_date_format = T(\'%Y-%m-%d\'),\nw2p_ajax_datetime_format = T(\'%Y-%m-%d %H:%M:%S\'),\najax_error_500 = T.M(\'An error occured, please [[reload %s]] the page\') % URL(args=request.args, vars=request.get_vars)\n))\nresponse.write(\'\\r\\n    //--></script>\\r\\n\', escape=False)\nresponse.files.insert(0,URL(\'static\',\'js/jquery.js\'))\nresponse.files.insert(1,URL(\'static\',\'css/calendar.css\'))\nresponse.files.insert(2,URL(\'static\',\'js/calendar.js\'))\nresponse.files.insert(3,URL(\'static\',\'js/web2py.js\'))\nresponse.include_meta()\nresponse.include_files()\nresponse.write(\'\\r\\n\', escape=False)\nresponse.write(\'\\r\\n  </head>\\r\\n  <body class="black">   \\r\\n    <header class="black padded">      \\r\\n      <div class="container middle max900">\\r\\n        <div class="fill middle">                    \\r\\n          <label class="ham" for="menu"><i class="fa fa-bars padded"></i></label>\\r\\n          <div class="burger accordion">\\r\\n            <input type="checkbox" id="menu"/>\\r\\n            \', escape=False)\nresponse.write(MENU(response.menu,_class=\'menu\'))\nresponse.write(\'\\r\\n          </div>\\r\\n        </div>\\r\\n      </div>\\r\\n    </header>\\r\\n    \', escape=False)\nif response.flash:\n    response.write(\'\\r\\n    <div class="w2p_flash">\\r\\n      \', escape=False)\n    response.write(response.flash)\n    response.write(\'\\r\\n    </div>\\r\\n    \', escape=False)\n    pass\nresponse.write(\'\\r\\n    <main class="white">\\r\\n      <div class="container max900">\\r\\n        \', escape=False)\nif left_sidebar_enabled:\n    response.write(\'\\r\\n        <div class="quarter padded">\', escape=False)\n    response.write(\'</div>\\r\\n        \', escape=False)\n    pass\nresponse.write(\'\\r\\n        <div class="\', escape=False)\nresponse.write(middle_column)\nresponse.write(\' padded">\', escape=False)\nresponse.write(\'\\r\\n\', escape=False)\nresponse.write(form)\nresponse.write(\'</div>\\r\\n        \', escape=False)\nif right_sidebar_enabled:\n    response.write(\'\\r\\n        <div class="quarter padded">\', escape=False)\n    response.write(\'</div>\\r\\n        \', escape=False)\n    pass\nresponse.write(\'\\r\\n      </div>     \\r\\n    </main>\\r\\n    <footer class="black">\\r\\n      <div class="container padded max900">\\r\\n        <div class="fill">\\r\\n          Copyright @ 2016 - Powered by Web2py\\r\\n        </div>\\r\\n      </div>\\r\\n    </footer>\\r\\n  </body>  \\r\\n  <script>\\r\\n    // prevent android horizontal scrolling\\r\\n    window.addEventListener("scroll", function(){window.scroll(0, window.pageYOffset);}, false);\\r\\n  </script>\\r\\n</html>\\r\\n\', escape=False)'
p7
sS'snapshot'
p8
(dp9
sS'traceback'
p10
S'Traceback (most recent call last):\n  File "C:\\Users\\Bruno\\Downloads\\web2py\\gluon\\restricted.py", line 219, in restricted\n    exec(ccode, environment)\n  File "C:\\Users\\Bruno\\Downloads\\web2py\\applications\\avalweb3\\views\\controlesaluno/home.html", line 37, in <module>\n  File "C:\\Users\\Bruno\\Downloads\\web2py\\gluon\\languages.py", line 423, in __len__\n    return len(str(self))\n  File "C:\\Users\\Bruno\\Downloads\\web2py\\gluon\\languages.py", line 386, in __str__\n    self.T.translate(self.m, self.s))\n  File "C:\\Users\\Bruno\\Downloads\\web2py\\gluon\\languages.py", line 931, in translate\n    lambda: self.get_t(message))\n  File "C:\\Users\\Bruno\\Downloads\\web2py\\gluon\\languages.py", line 146, in get_from_cache\n    result = lang_dict.setdefault(val, fun())\n  File "C:\\Users\\Bruno\\Downloads\\web2py\\gluon\\languages.py", line 931, in <lambda>\n    lambda: self.get_t(message))\n  File "C:\\Users\\Bruno\\Downloads\\web2py\\gluon\\languages.py", line 799, in get_t\n    message = to_native(message, \'utf8\')\n  File "C:\\Users\\Bruno\\Downloads\\web2py\\gluon\\_compat.py", line 73, in to_native\n    return obj.encode(charset, errors)\nAttributeError: \'bool\' object has no attribute \'encode\'\n'
p11
s.