(dp1
S'output'
p2
S"<type 'exceptions.ValueError'> invalid literal for long() with base 10: 'teste'"
p3
sS'layer'
p4
S'C:\\Users\\Bruno\\Downloads\\web2py\\applications\\avalweb3\\controllers/default.py'
p5
sS'code'
p6
S'<code object <module> at 04671DA0, file "C:\\Users\\Bruno\\Downloads\\web2py\\applications\\avalweb3\\controllers/default.py", line 1>'
p7
sS'snapshot'
p8
(dp9
S'exception'
p10
(dp11
S'__getslice__'
p12
S"<method-wrapper '__getslice__' of exceptions.ValueError object>"
p13
sS'__str__'
p14
S"<method-wrapper '__str__' of exceptions.ValueError object>"
p15
sS'__reduce__'
p16
S'<built-in method __reduce__ of exceptions.ValueError object>'
p17
sS'__dict__'
p18
S'{}'
p19
sS'message'
p20
S'"invalid literal for long() with base 10: \'teste\'"'
p21
sS'__sizeof__'
p22
S'<built-in method __sizeof__ of exceptions.ValueError object>'
p23
sS'__init__'
p24
S"<method-wrapper '__init__' of exceptions.ValueError object>"
p25
sS'__setattr__'
p26
S"<method-wrapper '__setattr__' of exceptions.ValueError object>"
p27
sS'__reduce_ex__'
p28
S'<built-in method __reduce_ex__ of exceptions.ValueError object>'
p29
sS'__new__'
p30
S'<built-in method __new__ of type object>'
p31
sS'__format__'
p32
S'<built-in method __format__ of exceptions.ValueError object>'
p33
sS'__class__'
p34
S"<type 'exceptions.ValueError'>"
p35
sS'__doc__'
p36
S"'Inappropriate argument value (of correct type).'"
p37
sS'__getitem__'
p38
S"<method-wrapper '__getitem__' of exceptions.ValueError object>"
p39
sS'__setstate__'
p40
S'<built-in method __setstate__ of exceptions.ValueError object>'
p41
sS'__getattribute__'
p42
S"<method-wrapper '__getattribute__' of exceptions.ValueError object>"
p43
sS'args'
p44
S'("invalid literal for long() with base 10: \'teste\'",)'
p45
sS'__subclasshook__'
p46
S'<built-in method __subclasshook__ of type object>'
p47
sS'__unicode__'
p48
S'<built-in method __unicode__ of exceptions.ValueError object>'
p49
sS'__delattr__'
p50
S"<method-wrapper '__delattr__' of exceptions.ValueError object>"
p51
sS'__repr__'
p52
S"<method-wrapper '__repr__' of exceptions.ValueError object>"
p53
sS'__hash__'
p54
S"<method-wrapper '__hash__' of exceptions.ValueError object>"
p55
ssS'evalue'
p56
S"invalid literal for long() with base 10: 'teste'"
p57
sS'request'
p58
cgluon.html
XML_unpickle
p59
(S's\xa4g\x00\x00<div><table><tr><td style="font-weight:bold;vertical-align:top;">ajax</td><td style="vertical-align:top;">:</td><td><div>False</div></td></tr><tr><td style="font-weight:bold;vertical-align:top;">application</td><td style="vertical-align:top;">:</td><td><div>avalweb3</div></td></tr><tr><td style="font-weight:bold;vertical-align:top;">args</td><td style="vertical-align:top;">:</td><td><div><table></table></div></td></tr><tr><td style="font-weight:bold;vertical-align:top;">cid</td><td style="vertical-align:top;">:</td><td><div>None</div></td></tr><tr><td style="font-weight:bold;vertical-align:top;">client</td><td style="vertical-align:top;">:</td><td><div>127.0.0.1</div></td></tr><tr><td style="font-weight:bold;vertical-align:top;">controller</td><td style="vertical-align:top;">:</td><td><div>default</div></td></tr><tr><td style="font-weight:bold;vertical-align:top;">cookies</td><td style="vertical-align:top;">:</td><td><div><table><tr><td style="font-weight:bold;vertical-align:top;">session_id_admin</td><td style="vertical-align:top;">:</td><td><div>127.0.0.1-3524f900-31bf-49ce-ad60-f3874042b220<table><tr><td style="font-weight:bold;vertical-align:top;">comment</td><td style="vertical-align:top;">:</td><td><div></div></td></tr><tr><td style="font-weight:bold;vertical-align:top;">domain</td><td style="vertical-align:top;">:</td><td><div></div></td></tr><tr><td style="font-weight:bold;vertical-align:top;">expires</td><td style="vertical-align:top;">:</td><td><div></div></td></tr><tr><td style="font-weight:bold;vertical-align:top;">httponly</td><td style="vertical-align:top;">:</td><td><div></div></td></tr><tr><td style="font-weight:bold;vertical-align:top;">max-age</td><td style="vertical-align:top;">:</td><td><div></div></td></tr><tr><td style="font-weight:bold;vertical-align:top;">path</td><td style="vertical-align:top;">:</td><td><div></div></td></tr><tr><td style="font-weight:bold;vertical-align:top;">secure</td><td style="vertical-align:top;">:</td><td><div></div></td></tr><tr><td style="font-weight:bold;vertical-align:top;">version</td><td style="vertical-align:top;">:</td><td><div></div></td></tr></table></div></td></tr><tr><td style="font-weight:bold;vertical-align:top;">session_id_avalweb3</td><td style="vertical-align:top;">:</td><td><div>127.0.0.1-6fd043ce-72f8-4f46-bd9d-f9359c0aedca<table><tr><td style="font-weight:bold;vertical-align:top;">comment</td><td style="vertical-align:top;">:</td><td><div></div></td></tr><tr><td style="font-weight:bold;vertical-align:top;">domain</td><td style="vertical-align:top;">:</td><td><div></div></td></tr><tr><td style="font-weight:bold;vertical-align:top;">expires</td><td style="vertical-align:top;">:</td><td><div></div></td></tr><tr><td style="font-weight:bold;vertical-align:top;">httponly</td><td style="vertical-align:top;">:</td><td><div></div></td></tr><tr><td style="font-weight:bold;vertical-align:top;">max-age</td><td style="vertical-align:top;">:</td><td><div></div></td></tr><tr><td style="font-weight:bold;vertical-align:top;">path</td><td style="vertical-align:top;">:</td><td><div></div></td></tr><tr><td style="font-weight:bold;vertical-align:top;">secure</td><td style="vertical-align:top;">:</td><td><div></div></td></tr><tr><td style="font-weight:bold;vertical-align:top;">version</td><td style="vertical-align:top;">:</td><td><div></div></td></tr></table></div></td></tr><tr><td style="font-weight:bold;vertical-align:top;">session_id_welcome</td><td style="vertical-align:top;">:</td><td><div>127.0.0.1-2e9d8842-c6f4-4a3a-a525-399bd98ca438<table><tr><td style="font-weight:bold;vertical-align:top;">comment</td><td style="vertical-align:top;">:</td><td><div></div></td></tr><tr><td style="font-weight:bold;vertical-align:top;">domain</td><td style="vertical-align:top;">:</td><td><div></div></td></tr><tr><td style="font-weight:bold;vertical-align:top;">expires</td><td style="vertical-align:top;">:</td><td><div></div></td></tr><tr><td style="font-weight:bold;vertical-align:top;">httponly</td><td style="vertical-align:top;">:</td><td><div></div></td></tr><tr><td style="font-weight:bold;vertical-align:top;">max-age</td><td style="vertical-align:top;">:</td><td><div></div></td></tr><tr><td style="font-weight:bold;vertical-align:top;">path</td><td style="vertical-align:top;">:</td><td><div></div></td></tr><tr><td style="font-weight:bold;vertical-align:top;">secure</td><td style="vertical-align:top;">:</td><td><div></div></td></tr><tr><td style="font-weight:bold;vertical-align:top;">version</td><td style="vertical-align:top;">:</td><td><div></div></td></tr></table></div></td></tr></table></div></td></tr><tr><td style="font-weight:bold;vertical-align:top;">env</td><td style="vertical-align:top;">:</td><td><div><table><tr><td style="font-weight:bold;vertical-align:top;">CONTENT_LENGTH</td><td style="vertical-align:top;">:</td><td><div>633</div></td></tr><tr><td style="font-weight:bold;vertical-align:top;">CONTENT_TYPE</td><td style="vertical-align:top;">:</td><td><div>multipart/form-data; boundary=----WebKitFormBoundaryEqO3gGoatMawQynq</div></td></tr><tr><td style="font-weight:bold;vertical-align:top;">HTTP_ACCEPT</td><td style="vertical-align:top;">:</td><td><div>text/html,application/xhtml+xml,application/xml;q=0.9,image/webp,image/apng,*/*;q=0.8</div></td></tr><tr><td style="font-weight:bold;vertical-align:top;">HTTP_ACCEPT_ENCODING</td><td style="vertical-align:top;">:</td><td><div>gzip, deflate, br</div></td></tr><tr><td style="font-weight:bold;vertical-align:top;">HTTP_ACCEPT_LANGUAGE</td><td style="vertical-align:top;">:</td><td><div>pt-BR,pt;q=0.9,en-US;q=0.8,en;q=0.7</div></td></tr><tr><td style="font-weight:bold;vertical-align:top;">HTTP_CACHE_CONTROL</td><td style="vertical-align:top;">:</td><td><div>max-age=0</div></td></tr><tr><td style="font-weight:bold;vertical-align:top;">HTTP_CONNECTION</td><td style="vertical-align:top;">:</td><td><div>keep-alive</div></td></tr><tr><td style="font-weight:bold;vertical-align:top;">HTTP_CONTENT_LENGTH</td><td style="vertical-align:top;">:</td><td><div>633</div></td></tr><tr><td style="font-weight:bold;vertical-align:top;">HTTP_CONTENT_TYPE</td><td style="vertical-align:top;">:</td><td><div>multipart/form-data; boundary=----WebKitFormBoundaryEqO3gGoatMawQynq</div></td></tr><tr><td style="font-weight:bold;vertical-align:top;">HTTP_COOKIE</td><td style="vertical-align:top;">:</td><td><div>session_id_welcome=127.0.0.1-2e9d8842-c6f4-4a3a-a525-399bd98ca438; session_id_admin=127.0.0.1-3524f900-31bf-49ce-ad60-f3874042b220; session_id_avalweb3=127.0.0.1-6fd043ce-72f8-4f46-bd9d-f9359c0aedca</div></td></tr><tr><td style="font-weight:bold;vertical-align:top;">HTTP_HOST</td><td style="vertical-align:top;">:</td><td><div>127.0.0.1:8000</div></td></tr><tr><td style="font-weight:bold;vertical-align:top;">HTTP_ORIGIN</td><td style="vertical-align:top;">:</td><td><div>http://127.0.0.1:8000</div></td></tr><tr><td style="font-weight:bold;vertical-align:top;">HTTP_REFERER</td><td style="vertical-align:top;">:</td><td><div>http://127.0.0.1:8000/avalweb3/default/index</div></td></tr><tr><td style="font-weight:bold;vertical-align:top;">HTTP_UPGRADE_INSECURE_REQUESTS</td><td style="vertical-align:top;">:</td><td><div>1</div></td></tr><tr><td style="font-weight:bold;vertical-align:top;">HTTP_USER_AGENT</td><td style="vertical-align:top;">:</td><td><div>Mozilla/5.0 (Windows NT 6.1; Win64; x64) AppleWebKit/537.36 (KHTML, like Gecko) Chrome/62.0.3202.94 Safari/537.36</div></td></tr><tr><td style="font-weight:bold;vertical-align:top;">PATH_INFO</td><td style="vertical-align:top;">:</td><td><div>/avalweb3/default/index</div></td></tr><tr><td style="font-weight:bold;vertical-align:top;">QUERY_STRING</td><td style="vertical-align:top;">:</td><td><div></div></td></tr><tr><td style="font-weight:bold;vertical-align:top;">REMOTE_ADDR</td><td style="vertical-align:top;">:</td><td><div>127.0.0.1</div></td></tr><tr><td style="font-weight:bold;vertical-align:top;">REMOTE_PORT</td><td style="vertical-align:top;">:</td><td><div>60139</div></td></tr><tr><td style="font-weight:bold;vertical-align:top;">REQUEST_METHOD</td><td style="vertical-align:top;">:</td><td><div>POST</div></td></tr><tr><td style="font-weight:bold;vertical-align:top;">SCRIPT_NAME</td><td style="vertical-align:top;">:</td><td><div></div></td></tr><tr><td style="font-weight:bold;vertical-align:top;">SERVER_NAME</td><td style="vertical-align:top;">:</td><td><div>Bruno-PC</div></td></tr><tr><td style="font-weight:bold;vertical-align:top;">SERVER_PORT</td><td style="vertical-align:top;">:</td><td><div>8000</div></td></tr><tr><td style="font-weight:bold;vertical-align:top;">SERVER_PROTOCOL</td><td style="vertical-align:top;">:</td><td><div>HTTP/1.1</div></td></tr><tr><td style="font-weight:bold;vertical-align:top;">SERVER_SOFTWARE</td><td style="vertical-align:top;">:</td><td><div>Rocket 1.2.6</div></td></tr><tr><td style="font-weight:bold;vertical-align:top;">app_folders</td><td style="vertical-align:top;">:</td><td><div>set([&#x27;C:\\\\Users\\\\Bruno\\\\Downloads\\\\web2py\\\\applications\\\\avalweb3\\\\&#x27;, &#x27;C:\\\\Users\\\\Bruno\\\\Downloads\\\\web2py\\\\applications\\\\admin\\\\&#x27;, &#x27;C:\\\\Users\\\\Bruno\\\\Downloads\\\\web2py\\\\applications\\\\welcome\\\\&#x27;])</div></td></tr><tr><td style="font-weight:bold;vertical-align:top;">applications_parent</td><td style="vertical-align:top;">:</td><td><div>C:\\Users\\Bruno\\Downloads\\web2py</div></td></tr><tr><td style="font-weight:bold;vertical-align:top;">cmd_args</td><td style="vertical-align:top;">:</td><td><div><table></table></div></td></tr><tr><td style="font-weight:bold;vertical-align:top;">cmd_options</td><td style="vertical-align:top;">:</td><td><div>&lt;Values at 0x2ff9af8: {&#x27;verbose&#x27;: False, &#x27;ip&#x27;: &#x27;127.0.0.1&#x27;, &#x27;debuglevel&#x27;: 30, &#x27;with_scheduler&#x27;: False, &#x27;shutdown_timeout&#x27;: 5, &#x27;taskbar&#x27;: False, &#x27;with_coverage&#x27;: False, &#x27;pid_filename&#x27;: &#x27;httpserver.pid&#x27;, &#x27;maxthreads&#x27;: None, &#x27;softcron&#x27;: False, &#x27;server_name&#x27;: &#x27;Bruno-PC&#x27;, &#x27;bpython&#x27;: False, &#x27;nogui&#x27;: False, &#x27;port&#x27;: 8000, &#x27;print_errors&#x27;: False, &#x27;extcron&#x27;: False, &#x27;runcron&#x27;: False, &#x27;run_system_tests&#x27;: False, &#x27;test&#x27;: None, &#x27;folder&#x27;: &#x27;C:\\\\Users\\\\Bruno\\\\Downloads\\\\web2py&#x27;, &#x27;config&#x27;: &#x27;&#x27;, &#x27;minthreads&#x27;: None, &#x27;shell&#x27;: None, &#x27;run&#x27;: &#x27;&#x27;, &#x27;log_filename&#x27;: &#x27;httpserver.log&#x27;, &#x27;profiler_dir&#x27;: None, &#x27;args&#x27;: [&#x27;&#x27;], &#x27;socket_timeout&#x27;: 5, &#x27;ssl_ca_certificate&#x27;: None, &#x27;scheduler&#x27;: None, &#x27;interfaces&#x27;: None, &#x27;ssl_private_key&#x27;: &#x27;&#x27;, &#x27;gae&#x27;: None, &#x27;password&#x27;: &#x27;******&#x27;, &#x27;request_queue_size&#x27;: 5, &#x27;ssl_certificate&#x27;: &#x27;&#x27;, &#x27;cronjob&#x27;: False, &#x27;numthreads&#x27;: None, &#x27;quiet&#x27;: False, &#x27;import_models&#x27;: False, &#x27;timeout&#x27;: 10, &#x27;plain&#x27;: False, &#x27;nobanner&#x27;: False}&gt;</div></td></tr><tr><td style="font-weight:bold;vertical-align:top;">content_length</td><td style="vertical-align:top;">:</td><td><div>633</div></td></tr><tr><td style="font-weight:bold;vertical-align:top;">content_type</td><td style="vertical-align:top;">:</td><td><div>multipart/form-data; boundary=----WebKitFormBoundaryEqO3gGoatMawQynq</div></td></tr><tr><td style="font-weight:bold;vertical-align:top;">db_sessions</td><td style="vertical-align:top;">:</td><td><div>set([])</div></td></tr><tr><td style="font-weight:bold;vertical-align:top;">debugging</td><td style="vertical-align:top;">:</td><td><div>True</div></td></tr><tr><td style="font-weight:bold;vertical-align:top;">gluon_parent</td><td style="vertical-align:top;">:</td><td><div>C:\\Users\\Bruno\\Downloads\\web2py</div></td></tr><tr><td style="font-weight:bold;vertical-align:top;">http_accept</td><td style="vertical-align:top;">:</td><td><div>text/html,application/xhtml+xml,application/xml;q=0.9,image/webp,image/apng,*/*;q=0.8</div></td></tr><tr><td style="font-weight:bold;vertical-align:top;">http_accept_encoding</td><td style="vertical-align:top;">:</td><td><div>gzip, deflate, br</div></td></tr><tr><td style="font-weight:bold;vertical-align:top;">http_accept_language</td><td style="vertical-align:top;">:</td><td><div>pt-BR,pt;q=0.9,en-US;q=0.8,en;q=0.7</div></td></tr><tr><td style="font-weight:bold;vertical-align:top;">http_cache_control</td><td style="vertical-align:top;">:</td><td><div>max-age=0</div></td></tr><tr><td style="font-weight:bold;vertical-align:top;">http_connection</td><td style="vertical-align:top;">:</td><td><div>keep-alive</div></td></tr><tr><td style="font-weight:bold;vertical-align:top;">http_content_length</td><td style="vertical-align:top;">:</td><td><div>633</div></td></tr><tr><td style="font-weight:bold;vertical-align:top;">http_content_type</td><td style="vertical-align:top;">:</td><td><div>multipart/form-data; boundary=----WebKitFormBoundaryEqO3gGoatMawQynq</div></td></tr><tr><td style="font-weight:bold;vertical-align:top;">http_cookie</td><td style="vertical-align:top;">:</td><td><div>session_id_welcome=127.0.0.1-2e9d8842-c6f4-4a3a-a525-399bd98ca438; session_id_admin=127.0.0.1-3524f900-31bf-49ce-ad60-f3874042b220; session_id_avalweb3=127.0.0.1-6fd043ce-72f8-4f46-bd9d-f9359c0aedca</div></td></tr><tr><td style="font-weight:bold;vertical-align:top;">http_host</td><td style="vertical-align:top;">:</td><td><div>127.0.0.1:8000</div></td></tr><tr><td style="font-weight:bold;vertical-align:top;">http_origin</td><td style="vertical-align:top;">:</td><td><div>http://127.0.0.1:8000</div></td></tr><tr><td style="font-weight:bold;vertical-align:top;">http_referer</td><td style="vertical-align:top;">:</td><td><div>http://127.0.0.1:8000/avalweb3/default/index</div></td></tr><tr><td style="font-weight:bold;vertical-align:top;">http_upgrade_insecure_requests</td><td style="vertical-align:top;">:</td><td><div>1</div></td></tr><tr><td style="font-weight:bold;vertical-align:top;">http_user_agent</td><td style="vertical-align:top;">:</td><td><div>Mozilla/5.0 (Windows NT 6.1; Win64; x64) AppleWebKit/537.36 (KHTML, like Gecko) Chrome/62.0.3202.94 Safari/537.36</div></td></tr><tr><td style="font-weight:bold;vertical-align:top;">is_jython</td><td style="vertical-align:top;">:</td><td><div>False</div></td></tr><tr><td style="font-weight:bold;vertical-align:top;">is_py2</td><td style="vertical-align:top;">:</td><td><div>True</div></td></tr><tr><td style="font-weight:bold;vertical-align:top;">is_pypy</td><td style="vertical-align:top;">:</td><td><div>False</div></td></tr><tr><td style="font-weight:bold;vertical-align:top;">is_source</td><td style="vertical-align:top;">:</td><td><div>False</div></td></tr><tr><td style="font-weight:bold;vertical-align:top;">local_hosts</td><td style="vertical-align:top;">:</td><td><div><table><tr><td><div>2804:431:b704:3f90:85c7:6bbb:13b4:1de8</div></td></tr><tr><td><div>192.168.1.32</div></td></tr><tr><td><div>fe80::85c7:6bbb:13b4:1de8%11</div></td></tr><tr><td><div>Bruno-PC.home</div></td></tr><tr><td><div>::ffff:127.0.0.1</div></td></tr><tr><td><div>::1</div></td></tr><tr><td><div>2804:431:b704:3f90:5c1e:4599:ba73:d6e5</div></td></tr><tr><td><div>127.0.0.1</div></td></tr><tr><td><div>fd9a:ca93:c921:1:5c1e:4599:ba73:d6e5</div></td></tr><tr><td><div>fd9a:ca93:c921:1:85c7:6bbb:13b4:1de8</div></td></tr><tr><td><div>Bruno-PC</div></td></tr></table></div></td></tr><tr><td style="font-weight:bold;vertical-align:top;">path_info</td><td style="vertical-align:top;">:</td><td><div>/avalweb3/default/index</div></td></tr><tr><td style="font-weight:bold;vertical-align:top;">query_string</td><td style="vertical-align:top;">:</td><td><div></div></td></tr><tr><td style="font-weight:bold;vertical-align:top;">remote_addr</td><td style="vertical-align:top;">:</td><td><div>127.0.0.1</div></td></tr><tr><td style="font-weight:bold;vertical-align:top;">remote_port</td><td style="vertical-align:top;">:</td><td><div>60139</div></td></tr><tr><td style="font-weight:bold;vertical-align:top;">request_method</td><td style="vertical-align:top;">:</td><td><div>POST</div></td></tr><tr><td style="font-weight:bold;vertical-align:top;">request_uri</td><td style="vertical-align:top;">:</td><td><div>/avalweb3/default/index</div></td></tr><tr><td style="font-weight:bold;vertical-align:top;">script_name</td><td style="vertical-align:top;">:</td><td><div></div></td></tr><tr><td style="font-weight:bold;vertical-align:top;">server_name</td><td style="vertical-align:top;">:</td><td><div>Bruno-PC</div></td></tr><tr><td style="font-weight:bold;vertical-align:top;">server_port</td><td style="vertical-align:top;">:</td><td><div>8000</div></td></tr><tr><td style="font-weight:bold;vertical-align:top;">server_protocol</td><td style="vertical-align:top;">:</td><td><div>HTTP/1.1</div></td></tr><tr><td style="font-weight:bold;vertical-align:top;">server_software</td><td style="vertical-align:top;">:</td><td><div>Rocket 1.2.6</div></td></tr><tr><td style="font-weight:bold;vertical-align:top;">web2py_path</td><td style="vertical-align:top;">:</td><td><div>C:\\Users\\Bruno\\Downloads\\web2py</div></td></tr><tr><td style="font-weight:bold;vertical-align:top;">web2py_version</td><td style="vertical-align:top;">:</td><td><div>2.15.4-stable+timestamp.2017.09.02.04.02.22</div></td></tr><tr><td style="font-weight:bold;vertical-align:top;">wsgi.errors</td><td style="vertical-align:top;">:</td><td><div>&lt;open file &#x27;&lt;stderr&gt;&#x27;, mode &#x27;w&#x27; at 0x01BCD0D0&gt;</div></td></tr><tr><td style="font-weight:bold;vertical-align:top;">wsgi.file_wrapper</td><td style="vertical-align:top;">:</td><td><div>&lt;class wsgiref.util.FileWrapper at 0x03302AE8&gt;</div></td></tr><tr><td style="font-weight:bold;vertical-align:top;">wsgi.input</td><td style="vertical-align:top;">:</td><td><div>&lt;socket._fileobject object at 0x041CDCB0&gt;</div></td></tr><tr><td style="font-weight:bold;vertical-align:top;">wsgi.multiprocess</td><td style="vertical-align:top;">:</td><td><div>False</div></td></tr><tr><td style="font-weight:bold;vertical-align:top;">wsgi.multithread</td><td style="vertical-align:top;">:</td><td><div>True</div></td></tr><tr><td style="font-weight:bold;vertical-align:top;">wsgi.run_once</td><td style="vertical-align:top;">:</td><td><div>False</div></td></tr><tr><td style="font-weight:bold;vertical-align:top;">wsgi.url_scheme</td><td style="vertical-align:top;">:</td><td><div>http</div></td></tr><tr><td style="font-weight:bold;vertical-align:top;">wsgi.version</td><td style="vertical-align:top;">:</td><td><div><table><tr><td><div>1</div></td></tr><tr><td><div>0</div></td></tr></table></div></td></tr><tr><td style="font-weight:bold;vertical-align:top;">wsgi_errors</td><td style="vertical-align:top;">:</td><td><div>&lt;open file &#x27;&lt;stderr&gt;&#x27;, mode &#x27;w&#x27; at 0x01BCD0D0&gt;</div></td></tr><tr><td style="font-weight:bold;vertical-align:top;">wsgi_file_wrapper</td><td style="vertical-align:top;">:</td><td><div>&lt;class wsgiref.util.FileWrapper at 0x03302AE8&gt;</div></td></tr><tr><td style="font-weight:bold;vertical-align:top;">wsgi_input</td><td style="vertical-align:top;">:</td><td><div>&lt;socket._fileobject object at 0x041CDCB0&gt;</div></td></tr><tr><td style="font-weight:bold;vertical-align:top;">wsgi_multiprocess</td><td style="vertical-align:top;">:</td><td><div>False</div></td></tr><tr><td style="font-weight:bold;vertical-align:top;">wsgi_multithread</td><td style="vertical-align:top;">:</td><td><div>True</div></td></tr><tr><td style="font-weight:bold;vertical-align:top;">wsgi_run_once</td><td style="vertical-align:top;">:</td><td><div>False</div></td></tr><tr><td style="font-weight:bold;vertical-align:top;">wsgi_url_scheme</td><td style="vertical-align:top;">:</td><td><div>http</div></td></tr><tr><td style="font-weight:bold;vertical-align:top;">wsgi_version</td><td style="vertical-align:top;">:</td><td><div><table><tr><td><div>1</div></td></tr><tr><td><div>0</div></td></tr></table></div></td></tr></table></div></td></tr><tr><td style="font-weight:bold;vertical-align:top;">extension</td><td style="vertical-align:top;">:</td><td><div>html</div></td></tr><tr><td style="font-weight:bold;vertical-align:top;">folder</td><td style="vertical-align:top;">:</td><td><div>C:\\Users\\Bruno\\Downloads\\web2py\\applications\\avalweb3\\</div></td></tr><tr><td style="font-weight:bold;vertical-align:top;">function</td><td style="vertical-align:top;">:</td><td><div>index</div></td></tr><tr><td style="font-weight:bold;vertical-align:top;">global_settings</td><td style="vertical-align:top;">:</td><td><div><table><tr><td style="font-weight:bold;vertical-align:top;">app_folders</td><td style="vertical-align:top;">:</td><td><div>set([&#x27;C:\\\\Users\\\\Bruno\\\\Downloads\\\\web2py\\\\applications\\\\avalweb3\\\\&#x27;, &#x27;C:\\\\Users\\\\Bruno\\\\Downloads\\\\web2py\\\\applications\\\\admin\\\\&#x27;, &#x27;C:\\\\Users\\\\Bruno\\\\Downloads\\\\web2py\\\\applications\\\\welcome\\\\&#x27;])</div></td></tr><tr><td style="font-weight:bold;vertical-align:top;">applications_parent</td><td style="vertical-align:top;">:</td><td><div>C:\\Users\\Bruno\\Downloads\\web2py</div></td></tr><tr><td style="font-weight:bold;vertical-align:top;">cmd_args</td><td style="vertical-align:top;">:</td><td><div><table></table></div></td></tr><tr><td style="font-weight:bold;vertical-align:top;">cmd_options</td><td style="vertical-align:top;">:</td><td><div>&lt;Values at 0x2ff9af8: {&#x27;verbose&#x27;: False, &#x27;ip&#x27;: &#x27;127.0.0.1&#x27;, &#x27;debuglevel&#x27;: 30, &#x27;with_scheduler&#x27;: False, &#x27;shutdown_timeout&#x27;: 5, &#x27;taskbar&#x27;: False, &#x27;with_coverage&#x27;: False, &#x27;pid_filename&#x27;: &#x27;httpserver.pid&#x27;, &#x27;maxthreads&#x27;: None, &#x27;softcron&#x27;: False, &#x27;server_name&#x27;: &#x27;Bruno-PC&#x27;, &#x27;bpython&#x27;: False, &#x27;nogui&#x27;: False, &#x27;port&#x27;: 8000, &#x27;print_errors&#x27;: False, &#x27;extcron&#x27;: False, &#x27;runcron&#x27;: False, &#x27;run_system_tests&#x27;: False, &#x27;test&#x27;: None, &#x27;folder&#x27;: &#x27;C:\\\\Users\\\\Bruno\\\\Downloads\\\\web2py&#x27;, &#x27;config&#x27;: &#x27;&#x27;, &#x27;minthreads&#x27;: None, &#x27;shell&#x27;: None, &#x27;run&#x27;: &#x27;&#x27;, &#x27;log_filename&#x27;: &#x27;httpserver.log&#x27;, &#x27;profiler_dir&#x27;: None, &#x27;args&#x27;: [&#x27;&#x27;], &#x27;socket_timeout&#x27;: 5, &#x27;ssl_ca_certificate&#x27;: None, &#x27;scheduler&#x27;: None, &#x27;interfaces&#x27;: None, &#x27;ssl_private_key&#x27;: &#x27;&#x27;, &#x27;gae&#x27;: None, &#x27;password&#x27;: &#x27;******&#x27;, &#x27;request_queue_size&#x27;: 5, &#x27;ssl_certificate&#x27;: &#x27;&#x27;, &#x27;cronjob&#x27;: False, &#x27;numthreads&#x27;: None, &#x27;quiet&#x27;: False, &#x27;import_models&#x27;: False, &#x27;timeout&#x27;: 10, &#x27;plain&#x27;: False, &#x27;nobanner&#x27;: False}&gt;</div></td></tr><tr><td style="font-weight:bold;vertical-align:top;">db_sessions</td><td style="vertical-align:top;">:</td><td><div>set([])</div></td></tr><tr><td style="font-weight:bold;vertical-align:top;">debugging</td><td style="vertical-align:top;">:</td><td><div>True</div></td></tr><tr><td style="font-weight:bold;vertical-align:top;">gluon_parent</td><td style="vertical-align:top;">:</td><td><div>C:\\Users\\Bruno\\Downloads\\web2py</div></td></tr><tr><td style="font-weight:bold;vertical-align:top;">is_jython</td><td style="vertical-align:top;">:</td><td><div>False</div></td></tr><tr><td style="font-weight:bold;vertical-align:top;">is_py2</td><td style="vertical-align:top;">:</td><td><div>True</div></td></tr><tr><td style="font-weight:bold;vertical-align:top;">is_pypy</td><td style="vertical-align:top;">:</td><td><div>False</div></td></tr><tr><td style="font-weight:bold;vertical-align:top;">is_source</td><td style="vertical-align:top;">:</td><td><div>False</div></td></tr><tr><td style="font-weight:bold;vertical-align:top;">local_hosts</td><td style="vertical-align:top;">:</td><td><div><table><tr><td><div>2804:431:b704:3f90:85c7:6bbb:13b4:1de8</div></td></tr><tr><td><div>192.168.1.32</div></td></tr><tr><td><div>fe80::85c7:6bbb:13b4:1de8%11</div></td></tr><tr><td><div>Bruno-PC.home</div></td></tr><tr><td><div>::ffff:127.0.0.1</div></td></tr><tr><td><div>::1</div></td></tr><tr><td><div>2804:431:b704:3f90:5c1e:4599:ba73:d6e5</div></td></tr><tr><td><div>127.0.0.1</div></td></tr><tr><td><div>fd9a:ca93:c921:1:5c1e:4599:ba73:d6e5</div></td></tr><tr><td><div>fd9a:ca93:c921:1:85c7:6bbb:13b4:1de8</div></td></tr><tr><td><div>Bruno-PC</div></td></tr></table></div></td></tr><tr><td style="font-weight:bold;vertical-align:top;">web2py_version</td><td style="vertical-align:top;">:</td><td><div>2.15.4-stable+timestamp.2017.09.02.04.02.22</div></td></tr></table></div></td></tr><tr><td style="font-weight:bold;vertical-align:top;">is_https</td><td style="vertical-align:top;">:</td><td><div>False</div></td></tr><tr><td style="font-weight:bold;vertical-align:top;">is_local</td><td style="vertical-align:top;">:</td><td><div>True</div></td></tr><tr><td style="font-weight:bold;vertical-align:top;">is_restful</td><td style="vertical-align:top;">:</td><td><div>False</div></td></tr><tr><td style="font-weight:bold;vertical-align:top;">is_scheduler</td><td style="vertical-align:top;">:</td><td><div>False</div></td></tr><tr><td style="font-weight:bold;vertical-align:top;">is_shell</td><td style="vertical-align:top;">:</td><td><div>False</div></td></tr><tr><td style="font-weight:bold;vertical-align:top;">now</td><td style="vertical-align:top;">:</td><td><div>datetime.datetime(2017, 11, 20, 20, 22, 11, 702000)</div></td></tr><tr><td style="font-weight:bold;vertical-align:top;">raw_args</td><td style="vertical-align:top;">:</td><td><div></div></td></tr><tr><td style="font-weight:bold;vertical-align:top;">raw_extension</td><td style="vertical-align:top;">:</td><td><div>None</div></td></tr><tr><td style="font-weight:bold;vertical-align:top;">url</td><td style="vertical-align:top;">:</td><td><div>/avalweb3/default/index</div></td></tr><tr><td style="font-weight:bold;vertical-align:top;">utcnow</td><td style="vertical-align:top;">:</td><td><div>datetime.datetime(2017, 11, 20, 22, 22, 11, 702000)</div></td></tr><tr><td style="font-weight:bold;vertical-align:top;">wsgi</td><td style="vertical-align:top;">:</td><td><div>&lt;gluon.main.LazyWSGI object at 0x048433F0&gt;</div></td></tr></table></div>'
tRp60
sS'frames'
p61
(lp62
(dp63
S'file'
p64
S'C:\\Users\\Bruno\\Downloads\\web2py\\gluon\\restricted.py'
p65
sS'dump'
p66
(dp67
S'environment'
p68
S"{'A': <class 'gluon.html.A'>, 'ANY_OF': <class 'gluon.validators.ANY_OF'>, 'ASSIGNJS': <function ASSIGNJS>, 'B': <class 'gluon.html.B'>, 'BEAUTIFY': <class 'gluon.html.BEAUTIFY'>, 'BODY': <class 'gluon.html.BODY'>, 'BR': <class 'gluon.html.BR'>, 'BUTTON': <class 'gluon.html.BUTTON'>, 'CAT': <class 'gluon.html.CAT'>, 'CENTER': <class 'gluon.html.CENTER'>, ...}"
p69
sS'ccode'
p70
S'<code object <module> at 04671DA0, file "C:\\User...cations\\avalweb3\\controllers/default.py", line 1>'
p71
ssS'lnum'
p72
I219
sS'lines'
p73
(dp74
I214
S'    if environment is None:'
p75
sI215
S'        environment = {}'
p76
sI216
S"    environment['__file__'] = layer"
p77
sI217
S"    environment['__name__'] = '__restricted__'"
p78
sI218
S'    try:'
p79
sI219
S'        exec(ccode, environment)'
p80
sI220
S'    except HTTP:'
p81
sI221
S'        raise'
p82
sI222
S'    except RestrictedError:'
p83
sI223
S'        # do not encapsulate (obfuscate) the original RestrictedError'
p84
ssS'call'
p85
S'(ccode=<code object <module> at 04671DA0, file "C:\\User...cations\\avalweb3\\controllers/default.py", line 1>, environment={\'A\': <class \'gluon.html.A\'>, \'ANY_OF\': <class \'gluon.validators.ANY_OF\'>, \'ASSIGNJS\': <function ASSIGNJS>, \'B\': <class \'gluon.html.B\'>, \'BEAUTIFY\': <class \'gluon.html.BEAUTIFY\'>, \'BODY\': <class \'gluon.html.BODY\'>, \'BR\': <class \'gluon.html.BR\'>, \'BUTTON\': <class \'gluon.html.BUTTON\'>, \'CAT\': <class \'gluon.html.CAT\'>, \'CENTER\': <class \'gluon.html.CENTER\'>, ...}, layer=r\'C:\\Users\\Bruno\\Downloads\\web2py\\applications\\avalweb3\\controllers/default.py\', scode=<code object <module> at 04671DA0, file "C:\\User...cations\\avalweb3\\controllers/default.py", line 1>)'
p86
sS'func'
p87
S'restricted'
p88
sa(dp89
g64
S'C:\\Users\\Bruno\\Downloads\\web2py\\applications\\avalweb3\\controllers\\default.py'
p90
sg66
(dp91
sg72
I20
sg73
(dp92
I10
S'    return dict(usuario=request.vars.login)'
p93
sI11
S''
sI12
S'def user():'
p94
sI13
S'    return dict()'
p95
sI14
S''
sI15
S'def dados():'
p96
sI16
S'    list = []'
p97
sI17
S'    for elem in db(db.aluno_dados).select():'
p98
sI18
S'        list.append(elem.name + "<br>")'
p99
sI19
S'    return list'
p100
ssg85
S'()'
p101
sg87
S'<module>'
p102
sa(dp103
g64
S'C:\\Users\\Bruno\\Downloads\\web2py\\gluon\\globals.py'
p104
sg66
(dp105
S'self'
p106
S'undefined'
p107
sS'f'
S'<function index>'
p108
ssg72
I414
sg73
(dp109
I416
S'        self._custom_commit = None'
p110
sI417
S'        self._custom_rollback = None'
p111
sI418
S"        self.generic_patterns = ['*']"
p112
sI409
S"        self.flash = ''            # used by the default view layout"
p113
sI410
S'        self.meta = Storage()      # used by web2py_ajax.html'
p114
sI411
S'        self.menu = []             # used by the default view layout'
p115
sI412
S'        self.files = []            # used by web2py_ajax.html'
p116
sI413
S'        self._vars = None'
p117
sI414
S'        self._caller = lambda f: f()'
p118
sI415
S'        self._view_environment = None'
p119
ssg85
S'(f=<function index>)'
p120
sg87
S'<lambda>'
p121
sa(dp122
g64
S'C:\\Users\\Bruno\\Downloads\\web2py\\applications\\avalweb3\\controllers\\default.py'
p123
sg66
(dp124
S'global request'
p125
S"<Storage {'_vars': <Storage {'_formkey': '252d2d...o\\\\Downloads\\\\web2py\\\\applications\\\\avalweb3\\\\'}>"
p126
sS'request.vars'
p127
S"<Storage {'_formkey': '252d2de9-c18f-4c6b-b1fe-a...i', 'email_aluno': 'bruno_galerani@hotmail.com'}>"
p128
sS'global session'
p129
S"<Storage {'_formkey[aluno_login/create]': ['d1e6...ate]': ['b38e4b68-00b9-4f58-bcbc-dcb327761d97']}>"
p130
sS'form'
p131
S'<gluon.sqlhtml.SQLFORM object>'
p132
sS'form.accepts'
p133
S'<bound method SQLFORM.accepts of <gluon.sqlhtml.SQLFORM object>>'
p134
ssg72
I4
sg73
(dp135
I2
S''
sI3
S'    form = SQLFORM(db.aluno_dados)'
p136
sI4
S'    if form.accepts(request.vars, session):'
p137
sI5
S"        response.flash = 'deu bom'"
p138
sI6
S''
sI7
S'    return dict(form=form)'
p139
sI8
S''
sI9
S'def home():'
p140
sI10
S'    return dict(usuario=request.vars.login)'
p141
sI11
S''
ssg85
S'()'
p142
sg87
S'index'
p143
sa(dp144
g64
S'C:\\Users\\Bruno\\Downloads\\web2py\\gluon\\sqlhtml.py'
p145
sg66
(dp146
S'self.table.insert'
p147
S'<bound method Table.insert of <Table aluno_dados (user_aluno, nome_aluno, email_aluno)>>'
p148
sS'pk'
p149
g107
sS'self'
p150
S'<gluon.sqlhtml.SQLFORM object>'
p151
sS'self.table'
p152
S'<Table aluno_dados (user_aluno, nome_aluno, email_aluno)>'
p153
sS'fields'
p154
S"{'email_aluno': 'bruno_galerani@hotmail.com', 'nome_aluno': 'Jo\\xc3\\xa3o Carlos Galerani', 'user_aluno': 'teste'}"
p155
ssg72
I1850
sg73
(dp156
I1845
S'                    if fields:'
p157
sI1846
S'                        qry = reduce(lambda x, y: x & y,'
p158
sI1847
S'                                     [self.table[k] == self.record[k] for k in self.table._primarykey])'
p159
sI1848
S'                        self.table._db(qry).update(**fields)'
p160
sI1849
S'                else:'
p161
sI1850
S'                    pk = self.table.insert(**fields)'
p162
sI1851
S'                    if pk:'
p163
sI1852
S'                        self.vars.update(pk)'
p164
sI1853
S'                    else:'
p165
sI1854
S'                        ret = False'
p166
ssg85
S"(self=<gluon.sqlhtml.SQLFORM object>, request_vars=<Storage {'_formkey': '252d2de9-c18f-4c6b-b1fe-a...i', 'email_aluno': 'bruno_galerani@hotmail.com'}>, session=<Storage {'_formkey[aluno_login/create]': ['d1e6...ate]': ['b38e4b68-00b9-4f58-bcbc-dcb327761d97']}>, formname='aluno_dados/create', keepvalues=False, onvalidation=None, dbio=True, hideerror=False, detect_record_change=False, **kwargs={})"
p167
sg87
S'accepts'
p168
sa(dp169
g64
S'C:\\Users\\Bruno\\Downloads\\web2py\\gluon\\packages\\dal\\pydal\\objects.py'
p170
sg66
(dp171
S'self'
p172
S'<Table aluno_dados (user_aluno, nome_aluno, email_aluno)>'
p173
sS'ret'
p174
g107
sS'row.op_values'
p175
S"<bound method OpRow.op_values of <OpRow {'user_a...', 'email_aluno': 'bruno_galerani@hotmail.com'}>>"
p176
sS'self._db._adapter'
p177
S'<pydal.adapters.mysql.MySQL object>'
p178
sS'self._db._adapter.insert'
p179
S'<bound method MySQL.insert of <pydal.adapters.mysql.MySQL object>>'
p180
sS'self._db'
p181
S'<DAL uri="mysql:******@localhost/avalweb">'
p182
sS'row'
p183
S"<OpRow {'user_aluno': 'teste', 'nome_aluno': 'Jo...i', 'email_aluno': 'bruno_galerani@hotmail.com'}>"
p184
ssg72
I734
sg73
(dp185
I736
S'            for f in self._after_insert:'
p186
sI737
S'                f(row, ret)'
p187
sI738
S'        return ret'
p188
sI729
S''
sI730
S'    def insert(self, **fields):'
p189
sI731
S'        row = self._fields_and_values_for_insert(fields)'
p190
sI732
S'        if any(f(row) for f in self._before_insert):'
p191
sI733
S'            return 0'
p192
sI734
S'        ret = self._db._adapter.insert(self, row.op_values())'
p193
sI735
S'        if ret and self._after_insert:'
p194
ssg85
S"(self=<Table aluno_dados (user_aluno, nome_aluno, email_aluno)>, **fields={'email_aluno': 'bruno_galerani@hotmail.com', 'nome_aluno': 'Jo\\xc3\\xa3o Carlos Galerani', 'user_aluno': 'teste'})"
p195
sg87
S'insert'
p196
sa(dp197
g64
S'C:\\Users\\Bruno\\Downloads\\web2py\\gluon\\packages\\dal\\pydal\\adapters\\base.py'
p198
sg66
(dp199
S'self._insert'
p200
S'<bound method MySQL._insert of <pydal.adapters.mysql.MySQL object>>'
p201
sS'query'
p202
g107
sS'self'
p203
S'<pydal.adapters.mysql.MySQL object>'
p204
sS'fields'
p205
S"[(<pydal.objects.Field object>, 'teste'), (<pydal.objects.Field object>, 'Jo\\xc3\\xa3o Carlos Galerani'), (<pydal.objects.Field object>, 'bruno_galerani@hotmail.com')]"
p206
sS'table'
p207
S'<Table aluno_dados (user_aluno, nome_aluno, email_aluno)>'
p208
ssg72
I479
sg73
(dp209
I480
S'        try:'
p210
sI481
S'            self.execute(query)'
p211
sI482
S'        except:'
p212
sI483
S'            e = sys.exc_info()[1]'
p213
sI474
S"                ','.join(el[0]._rname for el in fields),"
p214
sI475
S"                ','.join(self.expand(v, f.type) for f, v in fields))"
p215
sI476
S'        return self.dialect.insert_empty(table._rname)'
p216
sI477
S''
sI478
S'    def insert(self, table, fields):'
p217
sI479
S'        query = self._insert(table, fields)'
p218
ssg85
S"(self=<pydal.adapters.mysql.MySQL object>, table=<Table aluno_dados (user_aluno, nome_aluno, email_aluno)>, fields=[(<pydal.objects.Field object>, 'teste'), (<pydal.objects.Field object>, 'Jo\\xc3\\xa3o Carlos Galerani'), (<pydal.objects.Field object>, 'bruno_galerani@hotmail.com')])"
p219
sg87
g196
sa(dp220
g64
S'C:\\Users\\Bruno\\Downloads\\web2py\\gluon\\packages\\dal\\pydal\\adapters\\base.py'
p221
sg66
(dp222
S'fields'
p223
S"[(<pydal.objects.Field object>, 'teste'), (<pydal.objects.Field object>, 'Jo\\xc3\\xa3o Carlos Galerani'), (<pydal.objects.Field object>, 'bruno_galerani@hotmail.com')]"
p224
sS'self'
p225
S'<pydal.adapters.mysql.MySQL object>'
p226
sS'v'
g107
sS'f'
g107
sS'self.expand'
p227
S'<bound method MySQL._expand of <pydal.adapters.mysql.MySQL object>>'
p228
ssg72
I475
sg73
(dp229
I470
S'    def _insert(self, table, fields):'
p230
sI471
S'        if fields:'
p231
sI472
S'            return self.dialect.insert('
p232
sI473
S'                table._rname,'
p233
sI474
S"                ','.join(el[0]._rname for el in fields),"
p234
sI475
S"                ','.join(self.expand(v, f.type) for f, v in fields))"
p235
sI476
S'        return self.dialect.insert_empty(table._rname)'
p236
sI477
S''
sI478
S'    def insert(self, table, fields):'
p237
sI479
S'        query = self._insert(table, fields)'
p238
ssg85
S"(self=<pydal.adapters.mysql.MySQL object>, table=<Table aluno_dados (user_aluno, nome_aluno, email_aluno)>, fields=[(<pydal.objects.Field object>, 'teste'), (<pydal.objects.Field object>, 'Jo\\xc3\\xa3o Carlos Galerani'), (<pydal.objects.Field object>, 'bruno_galerani@hotmail.com')])"
p239
sg87
S'_insert'
p240
sa(dp241
g64
S'C:\\Users\\Bruno\\Downloads\\web2py\\gluon\\packages\\dal\\pydal\\adapters\\base.py'
p242
sg66
(dp243
S'f'
S'<pydal.objects.Field object>'
p244
sS'fields'
p245
g107
sS'self'
p246
S'<pydal.adapters.mysql.MySQL object>'
p247
sS'f.type'
p248
S"'reference aluno_login'"
p249
sS'v'
S"'teste'"
p250
sS'self.expand'
p251
S'<bound method MySQL._expand of <pydal.adapters.mysql.MySQL object>>'
p252
ssg72
I475
sg73
(dp253
I470
S'    def _insert(self, table, fields):'
p254
sI471
S'        if fields:'
p255
sI472
S'            return self.dialect.insert('
p256
sI473
S'                table._rname,'
p257
sI474
S"                ','.join(el[0]._rname for el in fields),"
p258
sI475
S"                ','.join(self.expand(v, f.type) for f, v in fields))"
p259
sI476
S'        return self.dialect.insert_empty(table._rname)'
p260
sI477
S''
sI478
S'    def insert(self, table, fields):'
p261
sI479
S'        query = self._insert(table, fields)'
p262
ssg85
S"((f=<pydal.objects.Field object>, v='teste'))"
p263
sg87
S'<genexpr>'
p264
sa(dp265
g64
S'C:\\Users\\Bruno\\Downloads\\web2py\\gluon\\packages\\dal\\pydal\\adapters\\base.py'
p266
sg66
(dp267
S'self.represent'
p268
S'<bound method MySQL.represent of <pydal.adapters.mysql.MySQL object>>'
p269
sS'rv'
p270
g107
sS'expression'
p271
S"'teste'"
p272
sS'self'
p273
S'<pydal.adapters.mysql.MySQL object>'
p274
sS'field_type'
p275
S"'reference aluno_login'"
p276
ssg72
I444
sg73
(dp277
I448
S'        elif isinstance(expression, bool):'
p278
sI439
S'                    op = op[:-1]'
p279
sI440
S"                rv = '(%s)' % op"
p280
sI441
S'            else:'
p281
sI442
S'                rv = op()'
p282
sI443
S'        elif field_type:'
p283
sI444
S'            rv = self.represent(expression, field_type)'
p284
sI445
S'        elif isinstance(expression, (list, tuple)):'
p285
sI446
S"            rv = ','.join(self.represent(item, field_type)"
p286
sI447
S'                          for item in expression)'
p287
ssg85
S"(self=<pydal.adapters.mysql.MySQL object>, expression='teste', field_type='reference aluno_login', colnames=False, query_env={})"
p288
sg87
S'_expand'
p289
sa(dp290
g64
S'C:\\Users\\Bruno\\Downloads\\web2py\\gluon\\packages\\dal\\pydal\\adapters\\base.py'
p291
sg66
(dp292
S'field_type'
p293
S"'reference aluno_login'"
p294
sS'obj'
p295
S"'teste'"
p296
sS'self'
p297
S'<pydal.adapters.mysql.MySQL object>'
p298
sS'global SQLAdapter'
p299
S"<class 'pydal.adapters.base.SQLAdapter'>"
p300
sS').represent'
p301
S'<bound method MySQL.represent of <pydal.adapters.mysql.MySQL object>>'
p302
sS'builtinsuper'
p303
S"<type 'super'>"
p304
ssg72
I381
sg73
(dp305
I384
S'        return "\'%s\'" % obj.replace("\'", "\'\'")'
p306
sI385
S''
sI376
S"        self.execute('SELECT 1;')"
p307
sI377
S''
sI378
S'    def represent(self, obj, field_type):'
p308
sI379
S'        if isinstance(obj, (Expression, Field)):'
p309
sI380
S'            return str(obj)'
p310
sI381
S'        return super(SQLAdapter, self).represent(obj, field_type)'
p311
sI382
S''
sI383
S'    def adapt(self, obj):'
p312
ssg85
S"(self=<pydal.adapters.mysql.MySQL object>, obj='teste', field_type='reference aluno_login')"
p313
sg87
S'represent'
p314
sa(dp315
g64
S'C:\\Users\\Bruno\\Downloads\\web2py\\gluon\\packages\\dal\\pydal\\adapters\\base.py'
p316
sg66
(dp317
S'self.representer'
p318
S'<pydal.representers.mysql.MySQLRepresenter object>'
p319
sS'self'
p320
S'<pydal.adapters.mysql.MySQL object>'
p321
sS'field_type'
p322
S"'reference aluno_login'"
p323
sS'obj'
p324
S"'teste'"
p325
sS'self.representer.represent'
p326
S'<bound method MySQLRepresenter.represent of <pydal.representers.mysql.MySQLRepresenter object>>'
p327
ssg72
I335
sg73
(dp328
I330
S'        return value'
p329
sI331
S''
sI332
S'    def represent(self, obj, field_type):'
p330
sI333
S'        if isinstance(obj, CALLABLETYPES):'
p331
sI334
S'            obj = obj()'
p332
sI335
S'        return self.representer.represent(obj, field_type)'
p333
sI336
S''
sI337
S'    def _drop_table_cleanup(self, table):'
p334
sI338
S'        del self.db[table._tablename]'
p335
sI339
S'        del self.db.tables[self.db.tables.index(table._tablename)]'
p336
ssg85
S"(self=<pydal.adapters.mysql.MySQL object>, obj='teste', field_type='reference aluno_login')"
p337
sg87
g314
sa(dp338
g64
S'C:\\Users\\Bruno\\Downloads\\web2py\\gluon\\packages\\dal\\pydal\\representers\\__init__.py'
p339
sg66
(dp340
S'field_type'
p341
S"'reference aluno_login'"
p342
sS'rv'
p343
S"'teste'"
p344
sS'self'
p345
S'<pydal.representers.mysql.MySQLRepresenter object>'
p346
sS'self.get_representer_for_type'
p347
S'<bound method MySQLRepresenter.get_representer_f...ydal.representers.mysql.MySQLRepresenter object>>'
p348
ssg72
I251
sg73
(dp349
I246
S'        if pre_end:'
p350
sI247
S'            return value'
p351
sI248
S'        repr_type, rv = self.get_representer_for_instance(value)('
p352
sI249
S'            value, field_type)'
p353
sI250
S'        if repr_type:'
p354
sI251
S'            rv = self.get_representer_for_type(field_type)(rv, field_type)'
p355
sI252
S'        return rv'
p356
sI253
S''
sI254
S''
sI255
S'from .base import BaseRepresenter, SQLRepresenter, NoSQLRepresenter'
p357
ssg85
S"(self=<pydal.representers.mysql.MySQLRepresenter object>, value='teste', field_type='reference aluno_login')"
p358
sg87
g314
sa(dp359
g64
S'C:\\Users\\Bruno\\Downloads\\web2py\\gluon\\packages\\dal\\pydal\\representers\\__init__.py'
p360
sg66
(dp361
S'value'
p362
S"'teste'"
p363
sS'self'
p364
S'<pydal.representers.TReprMethodWrapper object>'
p365
sS'self.call'
p366
S'<bound method TReprMethodWrapper._call_with_extr...f <pydal.representers.TReprMethodWrapper object>>'
p367
sS'self.adapt'
p368
S'<bound method TReprMethodWrapper._no_adapt of <pydal.representers.TReprMethodWrapper object>>'
p369
sS'field_type'
p370
S"'reference aluno_login'"
p371
ssg72
I139
sg73
(dp372
I134
S''
sI135
S'    def _call(self, value, field_type):'
p373
sI136
S'        return self.inner_call(value)'
p374
sI137
S''
sI138
S'    def __call__(self, value, field_type):'
p375
sI139
S'        return self.adapt(self.call(value, field_type))'
p376
sI140
S''
sI141
S''
sI142
S'class IReprMethodWrapper(object):'
p377
sI143
S'    def __init__(self, representer, obj):'
p378
ssg85
S"(self=<pydal.representers.TReprMethodWrapper object>, value='teste', field_type='reference aluno_login')"
p379
sg87
S'__call__'
p380
sa(dp381
g64
S'C:\\Users\\Bruno\\Downloads\\web2py\\gluon\\packages\\dal\\pydal\\representers\\__init__.py'
p382
sg66
(dp383
S'self.inner_call'
p384
S'<bound method TReprMethodWrapper._inner_call of <pydal.representers.TReprMethodWrapper object>>'
p385
sS'self'
p386
S'<pydal.representers.TReprMethodWrapper object>'
p387
sS'extras'
p388
S"{'referenced': 'aluno_login'}"
p389
sS'value'
p390
S"'teste'"
p391
ssg72
I133
sg73
(dp392
I128
S'            value = value.encode(self.representer.adapter.db_codec)'
p393
sI129
S'        return self.obj.f(self.representer, value, **kwargs)'
p394
sI130
S''
sI131
S'    def _call_with_extras(self, value, field_type):'
p395
sI132
S'        extras = self.extra(self.representer, field_type)'
p396
sI133
S'        return self.inner_call(value, **extras)'
p397
sI134
S''
sI135
S'    def _call(self, value, field_type):'
p398
sI136
S'        return self.inner_call(value)'
p399
sI137
S''
ssg85
S"(self=<pydal.representers.TReprMethodWrapper object>, value='teste', field_type='reference aluno_login')"
p400
sg87
S'_call_with_extras'
p401
sa(dp402
g64
S'C:\\Users\\Bruno\\Downloads\\web2py\\gluon\\packages\\dal\\pydal\\representers\\__init__.py'
p403
sg66
(dp404
S'self.obj.f'
p405
S'<function _reference>'
p406
sS'self.obj'
p407
S'<pydal.representers.for_type object>'
p408
sS'self'
p409
S'<pydal.representers.TReprMethodWrapper object>'
p410
sS'value'
p411
S"'teste'"
p412
sS'self.representer'
p413
S'<pydal.representers.mysql.MySQLRepresenter object>'
p414
sS'kwargs'
p415
S"{'referenced': 'aluno_login'}"
p416
ssg72
I124
sg73
(dp417
I128
S'            value = value.encode(self.representer.adapter.db_codec)'
p418
sI119
S''
sI120
S'    def _no_adapt(self, value):'
p419
sI121
S'        return value'
p420
sI122
S''
sI123
S'    def _inner_call(self, value, **kwargs):'
p421
sI124
S'        return self.obj.f(self.representer, value, **kwargs)'
p422
sI125
S''
sI126
S'    def _inner_call_with_encode(self, value, **kwargs):'
p423
sI127
S'        if isinstance(value, unicode):'
p424
ssg85
S"(self=<pydal.representers.TReprMethodWrapper object>, value='teste', **kwargs={'referenced': 'aluno_login'})"
p425
sg87
S'_inner_call'
p426
sa(dp427
g64
S'C:\\Users\\Bruno\\Downloads\\web2py\\gluon\\packages\\dal\\pydal\\representers\\base.py'
p428
sg66
(dp429
S'builtinstr'
p430
S"<type 'str'>"
p431
sS'global long'
p432
S"<type 'long'>"
p433
sS'value'
p434
S"'teste'"
p435
ssg72
I141
sg73
(dp436
I136
S"        return {'referenced': field_type[9:].strip()}"
p437
sI137
S''
sI138
S"    @for_type('reference', adapt=False)"
p438
sI139
S'    def _reference(self, value, referenced):'
p439
sI140
S'        if referenced in self.adapter.db.tables:'
p440
sI141
S'            return str(long(value))'
p441
sI142
S"        p = referenced.partition('.')"
p442
sI143
S"        if p[2] != '':"
p443
sI144
S'            try:'
p444
sI145
S'                ftype = self.adapter.db[p[0]][p[2]].type'
p445
ssg85
S"(self=<pydal.representers.mysql.MySQLRepresenter object>, value='teste', referenced='aluno_login')"
p446
sg87
S'_reference'
p447
sasS'pyver'
p448
S'Python 2.7.9: C:\\Users\\Bruno\\Downloads\\web2py\\web2py.exe (prefix: C:\\Python27)'
p449
sS'session'
p450
g59
(S's\x1a\x00\x00\x00<div><table></table></div>'
tRp451
sS'etype'
p452
S"<type 'exceptions.ValueError'>"
p453
sS'date'
p454
S'Mon Nov 20 20:22:11 2017'
p455
sS'response'
p456
g59
(S'sz\x1b\x00\x00<div><table><tr><td style="font-weight:bold;vertical-align:top;">body</td><td style="vertical-align:top;">:</td><td><div>&lt;cStringIO.StringO object at 0x048434C0&gt;</div></td></tr><tr><td style="font-weight:bold;vertical-align:top;">cookies</td><td style="vertical-align:top;">:</td><td><div><table><tr><td style="font-weight:bold;vertical-align:top;">session_id_avalweb3</td><td style="vertical-align:top;">:</td><td><div>127.0.0.1-6fd043ce-72f8-4f46-bd9d-f9359c0aedca<table><tr><td style="font-weight:bold;vertical-align:top;">comment</td><td style="vertical-align:top;">:</td><td><div></div></td></tr><tr><td style="font-weight:bold;vertical-align:top;">domain</td><td style="vertical-align:top;">:</td><td><div></div></td></tr><tr><td style="font-weight:bold;vertical-align:top;">expires</td><td style="vertical-align:top;">:</td><td><div></div></td></tr><tr><td style="font-weight:bold;vertical-align:top;">httponly</td><td style="vertical-align:top;">:</td><td><div></div></td></tr><tr><td style="font-weight:bold;vertical-align:top;">max-age</td><td style="vertical-align:top;">:</td><td><div></div></td></tr><tr><td style="font-weight:bold;vertical-align:top;">path</td><td style="vertical-align:top;">:</td><td><div>/</div></td></tr><tr><td style="font-weight:bold;vertical-align:top;">secure</td><td style="vertical-align:top;">:</td><td><div></div></td></tr><tr><td style="font-weight:bold;vertical-align:top;">version</td><td style="vertical-align:top;">:</td><td><div></div></td></tr></table></div></td></tr></table></div></td></tr><tr><td style="font-weight:bold;vertical-align:top;">delimiters</td><td style="vertical-align:top;">:</td><td><div><table><tr><td><div>{{</div></td></tr><tr><td><div>}}</div></td></tr></table></div></td></tr><tr><td style="font-weight:bold;vertical-align:top;">files</td><td style="vertical-align:top;">:</td><td><div><table></table></div></td></tr><tr><td style="font-weight:bold;vertical-align:top;">flash</td><td style="vertical-align:top;">:</td><td><div></div></td></tr><tr><td style="font-weight:bold;vertical-align:top;">form_label_separator</td><td style="vertical-align:top;">:</td><td><div>: </div></td></tr><tr><td style="font-weight:bold;vertical-align:top;">formstyle</td><td style="vertical-align:top;">:</td><td><div>table3cols</div></td></tr><tr><td style="font-weight:bold;vertical-align:top;">generic_patterns</td><td style="vertical-align:top;">:</td><td><div><table><tr><td><div>*</div></td></tr></table></div></td></tr><tr><td style="font-weight:bold;vertical-align:top;">headers</td><td style="vertical-align:top;">:</td><td><div><table><tr><td style="font-weight:bold;vertical-align:top;">X-Powered-By</td><td style="vertical-align:top;">:</td><td><div>web2py</div></td></tr></table></div></td></tr><tr><td style="font-weight:bold;vertical-align:top;">menu</td><td style="vertical-align:top;">:</td><td><div><table><tr><td><div><table><tr><td><div>Home</div></td></tr><tr><td><div>True</div></td></tr><tr><td><div>/avalweb3/default/index</div></td></tr></table></div></td></tr><tr><td><div><table><tr><td><div>About</div></td></tr><tr><td><div>False</div></td></tr><tr><td><div>/avalweb3/default/what</div></td></tr></table></div></td></tr><tr><td><div><table><tr><td><div>Download</div></td></tr><tr><td><div>False</div></td></tr><tr><td><div>/avalweb3/default/download</div></td></tr></table></div></td></tr><tr><td><div><table><tr><td><div>Docs &amp; Resources</div></td></tr><tr><td><div>False</div></td></tr><tr><td><div>/avalweb3/default/documentation</div></td></tr></table></div></td></tr><tr><td><div><table><tr><td><div>Support</div></td></tr><tr><td><div>False</div></td></tr><tr><td><div>/avalweb3/default/support</div></td></tr></table></div></td></tr><tr><td><div><table><tr><td><div>Contributors</div></td></tr><tr><td><div>False</div></td></tr><tr><td><div>/avalweb3/default/who</div></td></tr></table></div></td></tr></table></div></td></tr><tr><td style="font-weight:bold;vertical-align:top;">meta</td><td style="vertical-align:top;">:</td><td><div><table></table></div></td></tr><tr><td style="font-weight:bold;vertical-align:top;">models_to_run</td><td style="vertical-align:top;">:</td><td><div><table><tr><td><div>^\\w+\\.py$</div></td></tr><tr><td><div>^default/\\w+\\.py$</div></td></tr><tr><td><div>^default/index/\\w+\\.py$</div></td></tr></table></div></td></tr><tr><td style="font-weight:bold;vertical-align:top;">postprocessing</td><td style="vertical-align:top;">:</td><td><div><table></table></div></td></tr><tr><td style="font-weight:bold;vertical-align:top;">session_client</td><td style="vertical-align:top;">:</td><td><div>127.0.0.1</div></td></tr><tr><td style="font-weight:bold;vertical-align:top;">session_cookie_compression_level</td><td style="vertical-align:top;">:</td><td><div>None</div></td></tr><tr><td style="font-weight:bold;vertical-align:top;">session_cookie_expires</td><td style="vertical-align:top;">:</td><td><div>None</div></td></tr><tr><td style="font-weight:bold;vertical-align:top;">session_data_name</td><td style="vertical-align:top;">:</td><td><div>session_data_avalweb3</div></td></tr><tr><td style="font-weight:bold;vertical-align:top;">session_file</td><td style="vertical-align:top;">:</td><td><div>&lt;open file &#x27;C:\\\\Users\\\\Bruno\\\\Downloads\\\\web2py\\\\applications\\\\avalweb3\\\\sessions\\\\0bb\\\\116\\\\127.0.0.1-6fd043ce-72f8-4f46-bd9d-f9359c0aedca&#x27;, mode &#x27;rb+&#x27; at 0x0467AF98&gt;</div></td></tr><tr><td style="font-weight:bold;vertical-align:top;">session_filename</td><td style="vertical-align:top;">:</td><td><div>C:\\Users\\Bruno\\Downloads\\web2py\\applications\\avalweb3\\sessions\\127.0.0.1-6fd043ce-72f8-4f46-bd9d-f9359c0aedca</div></td></tr><tr><td style="font-weight:bold;vertical-align:top;">session_hash</td><td style="vertical-align:top;">:</td><td><div>e6bca0dadb75bb1763ee26fb64b5d9b6</div></td></tr><tr><td style="font-weight:bold;vertical-align:top;">session_id</td><td style="vertical-align:top;">:</td><td><div>127.0.0.1-6fd043ce-72f8-4f46-bd9d-f9359c0aedca</div></td></tr><tr><td style="font-weight:bold;vertical-align:top;">session_id_name</td><td style="vertical-align:top;">:</td><td><div>session_id_avalweb3</div></td></tr><tr><td style="font-weight:bold;vertical-align:top;">session_locked</td><td style="vertical-align:top;">:</td><td><div>True</div></td></tr><tr><td style="font-weight:bold;vertical-align:top;">session_masterapp</td><td style="vertical-align:top;">:</td><td><div>avalweb3</div></td></tr><tr><td style="font-weight:bold;vertical-align:top;">session_new</td><td style="vertical-align:top;">:</td><td><div>False</div></td></tr><tr><td style="font-weight:bold;vertical-align:top;">session_storage_type</td><td style="vertical-align:top;">:</td><td><div>file</div></td></tr><tr><td style="font-weight:bold;vertical-align:top;">status</td><td style="vertical-align:top;">:</td><td><div>200</div></td></tr><tr><td style="font-weight:bold;vertical-align:top;">view</td><td style="vertical-align:top;">:</td><td><div>default/index.html</div></td></tr></table></div>'
tRp457
sS'locals'
p458
(dp459
S'self'
p460
S'<pydal.representers.mysql.MySQLRepresenter object>'
p461
sS'referenced'
p462
S"'aluno_login'"
p463
sS'value'
p464
S"'teste'"
p465
sssS'traceback'
p466
S'Traceback (most recent call last):\n  File "C:\\Users\\Bruno\\Downloads\\web2py\\gluon\\restricted.py", line 219, in restricted\n    exec(ccode, environment)\n  File "C:\\Users\\Bruno\\Downloads\\web2py\\applications\\avalweb3\\controllers/default.py", line 20, in <module>\n  File "C:\\Users\\Bruno\\Downloads\\web2py\\gluon\\globals.py", line 414, in <lambda>\n    self._caller = lambda f: f()\n  File "C:\\Users\\Bruno\\Downloads\\web2py\\applications\\avalweb3\\controllers/default.py", line 4, in index\n    if form.accepts(request.vars, session):\n  File "C:\\Users\\Bruno\\Downloads\\web2py\\gluon\\sqlhtml.py", line 1850, in accepts\n    pk = self.table.insert(**fields)\n  File "C:\\Users\\Bruno\\Downloads\\web2py\\gluon\\packages\\dal\\pydal\\objects.py", line 734, in insert\n    ret = self._db._adapter.insert(self, row.op_values())\n  File "C:\\Users\\Bruno\\Downloads\\web2py\\gluon\\packages\\dal\\pydal\\adapters\\base.py", line 479, in insert\n    query = self._insert(table, fields)\n  File "C:\\Users\\Bruno\\Downloads\\web2py\\gluon\\packages\\dal\\pydal\\adapters\\base.py", line 475, in _insert\n    \',\'.join(self.expand(v, f.type) for f, v in fields))\n  File "C:\\Users\\Bruno\\Downloads\\web2py\\gluon\\packages\\dal\\pydal\\adapters\\base.py", line 475, in <genexpr>\n    \',\'.join(self.expand(v, f.type) for f, v in fields))\n  File "C:\\Users\\Bruno\\Downloads\\web2py\\gluon\\packages\\dal\\pydal\\adapters\\base.py", line 444, in _expand\n    rv = self.represent(expression, field_type)\n  File "C:\\Users\\Bruno\\Downloads\\web2py\\gluon\\packages\\dal\\pydal\\adapters\\base.py", line 381, in represent\n    return super(SQLAdapter, self).represent(obj, field_type)\n  File "C:\\Users\\Bruno\\Downloads\\web2py\\gluon\\packages\\dal\\pydal\\adapters\\base.py", line 335, in represent\n    return self.representer.represent(obj, field_type)\n  File "C:\\Users\\Bruno\\Downloads\\web2py\\gluon\\packages\\dal\\pydal\\representers\\__init__.py", line 251, in represent\n    rv = self.get_representer_for_type(field_type)(rv, field_type)\n  File "C:\\Users\\Bruno\\Downloads\\web2py\\gluon\\packages\\dal\\pydal\\representers\\__init__.py", line 139, in __call__\n    return self.adapt(self.call(value, field_type))\n  File "C:\\Users\\Bruno\\Downloads\\web2py\\gluon\\packages\\dal\\pydal\\representers\\__init__.py", line 133, in _call_with_extras\n    return self.inner_call(value, **extras)\n  File "C:\\Users\\Bruno\\Downloads\\web2py\\gluon\\packages\\dal\\pydal\\representers\\__init__.py", line 124, in _inner_call\n    return self.obj.f(self.representer, value, **kwargs)\n  File "C:\\Users\\Bruno\\Downloads\\web2py\\gluon\\packages\\dal\\pydal\\representers\\base.py", line 141, in _reference\n    return str(long(value))\nValueError: invalid literal for long() with base 10: \'teste\'\n'
p467
s.