(dp1
S'output'
p2
S"<type 'exceptions.AttributeError'> 'Query' object has no attribute 'type'"
p3
sS'layer'
p4
S'C:\\Users\\ferna\\Downloads\\web2py\\applications\\avalweb3\\controllers/provas.py'
p5
sS'code'
p6
S'<code object <module> at 095ADB60, file "C:\\Users\\ferna\\Downloads\\web2py\\applications\\avalweb3\\controllers/provas.py", line 1>'
p7
sS'snapshot'
p8
(dp9
S'exception'
p10
(dp11
S'__getslice__'
p12
S"<method-wrapper '__getslice__' of exceptions.AttributeError object>"
p13
sS'__str__'
p14
S"<method-wrapper '__str__' of exceptions.AttributeError object>"
p15
sS'__reduce__'
p16
S'<built-in method __reduce__ of exceptions.AttributeError object>'
p17
sS'__dict__'
p18
S'{}'
p19
sS'message'
p20
S'"\'Query\' object has no attribute \'type\'"'
p21
sS'__sizeof__'
p22
S'<built-in method __sizeof__ of exceptions.AttributeError object>'
p23
sS'__init__'
p24
S"<method-wrapper '__init__' of exceptions.AttributeError object>"
p25
sS'__setattr__'
p26
S"<method-wrapper '__setattr__' of exceptions.AttributeError object>"
p27
sS'__reduce_ex__'
p28
S'<built-in method __reduce_ex__ of exceptions.AttributeError object>'
p29
sS'__new__'
p30
S'<built-in method __new__ of type object>'
p31
sS'__format__'
p32
S'<built-in method __format__ of exceptions.AttributeError object>'
p33
sS'__class__'
p34
S"<type 'exceptions.AttributeError'>"
p35
sS'__doc__'
p36
S"'Attribute not found.'"
p37
sS'__getitem__'
p38
S"<method-wrapper '__getitem__' of exceptions.AttributeError object>"
p39
sS'__setstate__'
p40
S'<built-in method __setstate__ of exceptions.AttributeError object>'
p41
sS'__getattribute__'
p42
S"<method-wrapper '__getattribute__' of exceptions.AttributeError object>"
p43
sS'args'
p44
S'("\'Query\' object has no attribute \'type\'",)'
p45
sS'__subclasshook__'
p46
S'<built-in method __subclasshook__ of type object>'
p47
sS'__unicode__'
p48
S'<built-in method __unicode__ of exceptions.AttributeError object>'
p49
sS'__delattr__'
p50
S"<method-wrapper '__delattr__' of exceptions.AttributeError object>"
p51
sS'__repr__'
p52
S"<method-wrapper '__repr__' of exceptions.AttributeError object>"
p53
sS'__hash__'
p54
S"<method-wrapper '__hash__' of exceptions.AttributeError object>"
p55
ssS'evalue'
p56
S"'Query' object has no attribute 'type'"
p57
sS'request'
p58
cgluon.html
XML_unpickle
p59
(S's\x97a\x00\x00<div><table><tr><td style="font-weight:bold;vertical-align:top;">ajax</td><td style="vertical-align:top;">:</td><td><div>False</div></td></tr><tr><td style="font-weight:bold;vertical-align:top;">application</td><td style="vertical-align:top;">:</td><td><div>avalweb3</div></td></tr><tr><td style="font-weight:bold;vertical-align:top;">args</td><td style="vertical-align:top;">:</td><td><div><table></table></div></td></tr><tr><td style="font-weight:bold;vertical-align:top;">cid</td><td style="vertical-align:top;">:</td><td><div>None</div></td></tr><tr><td style="font-weight:bold;vertical-align:top;">client</td><td style="vertical-align:top;">:</td><td><div>127.0.0.1</div></td></tr><tr><td style="font-weight:bold;vertical-align:top;">controller</td><td style="vertical-align:top;">:</td><td><div>provas</div></td></tr><tr><td style="font-weight:bold;vertical-align:top;">cookies</td><td style="vertical-align:top;">:</td><td><div><table><tr><td style="font-weight:bold;vertical-align:top;">session_id_admin</td><td style="vertical-align:top;">:</td><td><div>127.0.0.1-ac3ec7ce-2def-491e-bc91-d38ee061dcf5<table><tr><td style="font-weight:bold;vertical-align:top;">comment</td><td style="vertical-align:top;">:</td><td><div></div></td></tr><tr><td style="font-weight:bold;vertical-align:top;">domain</td><td style="vertical-align:top;">:</td><td><div></div></td></tr><tr><td style="font-weight:bold;vertical-align:top;">expires</td><td style="vertical-align:top;">:</td><td><div></div></td></tr><tr><td style="font-weight:bold;vertical-align:top;">httponly</td><td style="vertical-align:top;">:</td><td><div></div></td></tr><tr><td style="font-weight:bold;vertical-align:top;">max-age</td><td style="vertical-align:top;">:</td><td><div></div></td></tr><tr><td style="font-weight:bold;vertical-align:top;">path</td><td style="vertical-align:top;">:</td><td><div></div></td></tr><tr><td style="font-weight:bold;vertical-align:top;">secure</td><td style="vertical-align:top;">:</td><td><div></div></td></tr><tr><td style="font-weight:bold;vertical-align:top;">version</td><td style="vertical-align:top;">:</td><td><div></div></td></tr></table></div></td></tr><tr><td style="font-weight:bold;vertical-align:top;">session_id_avalweb3</td><td style="vertical-align:top;">:</td><td><div>127.0.0.1-91324615-6d72-464f-b37d-5e44d8f10c82<table><tr><td style="font-weight:bold;vertical-align:top;">comment</td><td style="vertical-align:top;">:</td><td><div></div></td></tr><tr><td style="font-weight:bold;vertical-align:top;">domain</td><td style="vertical-align:top;">:</td><td><div></div></td></tr><tr><td style="font-weight:bold;vertical-align:top;">expires</td><td style="vertical-align:top;">:</td><td><div></div></td></tr><tr><td style="font-weight:bold;vertical-align:top;">httponly</td><td style="vertical-align:top;">:</td><td><div></div></td></tr><tr><td style="font-weight:bold;vertical-align:top;">max-age</td><td style="vertical-align:top;">:</td><td><div></div></td></tr><tr><td style="font-weight:bold;vertical-align:top;">path</td><td style="vertical-align:top;">:</td><td><div></div></td></tr><tr><td style="font-weight:bold;vertical-align:top;">secure</td><td style="vertical-align:top;">:</td><td><div></div></td></tr><tr><td style="font-weight:bold;vertical-align:top;">version</td><td style="vertical-align:top;">:</td><td><div></div></td></tr></table></div></td></tr><tr><td style="font-weight:bold;vertical-align:top;">session_id_welcome</td><td style="vertical-align:top;">:</td><td><div>127.0.0.1-c03ae9e3-78a7-48e4-b278-7523b2badcbe<table><tr><td style="font-weight:bold;vertical-align:top;">comment</td><td style="vertical-align:top;">:</td><td><div></div></td></tr><tr><td style="font-weight:bold;vertical-align:top;">domain</td><td style="vertical-align:top;">:</td><td><div></div></td></tr><tr><td style="font-weight:bold;vertical-align:top;">expires</td><td style="vertical-align:top;">:</td><td><div></div></td></tr><tr><td style="font-weight:bold;vertical-align:top;">httponly</td><td style="vertical-align:top;">:</td><td><div></div></td></tr><tr><td style="font-weight:bold;vertical-align:top;">max-age</td><td style="vertical-align:top;">:</td><td><div></div></td></tr><tr><td style="font-weight:bold;vertical-align:top;">path</td><td style="vertical-align:top;">:</td><td><div></div></td></tr><tr><td style="font-weight:bold;vertical-align:top;">secure</td><td style="vertical-align:top;">:</td><td><div></div></td></tr><tr><td style="font-weight:bold;vertical-align:top;">version</td><td style="vertical-align:top;">:</td><td><div></div></td></tr></table></div></td></tr></table></div></td></tr><tr><td style="font-weight:bold;vertical-align:top;">env</td><td style="vertical-align:top;">:</td><td><div><table><tr><td style="font-weight:bold;vertical-align:top;">HTTP_ACCEPT</td><td style="vertical-align:top;">:</td><td><div>text/html,application/xhtml+xml,application/xml;q=0.9,image/webp,image/apng,*/*;q=0.8</div></td></tr><tr><td style="font-weight:bold;vertical-align:top;">HTTP_ACCEPT_ENCODING</td><td style="vertical-align:top;">:</td><td><div>gzip, deflate, br</div></td></tr><tr><td style="font-weight:bold;vertical-align:top;">HTTP_ACCEPT_LANGUAGE</td><td style="vertical-align:top;">:</td><td><div>pt-BR,pt;q=0.9,en-US;q=0.8,en;q=0.7</div></td></tr><tr><td style="font-weight:bold;vertical-align:top;">HTTP_CACHE_CONTROL</td><td style="vertical-align:top;">:</td><td><div>max-age=0</div></td></tr><tr><td style="font-weight:bold;vertical-align:top;">HTTP_CONNECTION</td><td style="vertical-align:top;">:</td><td><div>keep-alive</div></td></tr><tr><td style="font-weight:bold;vertical-align:top;">HTTP_COOKIE</td><td style="vertical-align:top;">:</td><td><div>session_id_welcome=127.0.0.1-c03ae9e3-78a7-48e4-b278-7523b2badcbe; session_id_avalweb3=127.0.0.1-91324615-6d72-464f-b37d-5e44d8f10c82; session_id_admin=127.0.0.1-ac3ec7ce-2def-491e-bc91-d38ee061dcf5</div></td></tr><tr><td style="font-weight:bold;vertical-align:top;">HTTP_HOST</td><td style="vertical-align:top;">:</td><td><div>127.0.0.1:8000</div></td></tr><tr><td style="font-weight:bold;vertical-align:top;">HTTP_REFERER</td><td style="vertical-align:top;">:</td><td><div>http://127.0.0.1:8000/avalweb3/controlesaluno/home</div></td></tr><tr><td style="font-weight:bold;vertical-align:top;">HTTP_UPGRADE_INSECURE_REQUESTS</td><td style="vertical-align:top;">:</td><td><div>1</div></td></tr><tr><td style="font-weight:bold;vertical-align:top;">HTTP_USER_AGENT</td><td style="vertical-align:top;">:</td><td><div>Mozilla/5.0 (Windows NT 10.0; Win64; x64) AppleWebKit/537.36 (KHTML, like Gecko) Chrome/62.0.3202.94 Safari/537.36</div></td></tr><tr><td style="font-weight:bold;vertical-align:top;">PATH_INFO</td><td style="vertical-align:top;">:</td><td><div>/avalweb3/provas/provas_dinamica</div></td></tr><tr><td style="font-weight:bold;vertical-align:top;">QUERY_STRING</td><td style="vertical-align:top;">:</td><td><div></div></td></tr><tr><td style="font-weight:bold;vertical-align:top;">REMOTE_ADDR</td><td style="vertical-align:top;">:</td><td><div>127.0.0.1</div></td></tr><tr><td style="font-weight:bold;vertical-align:top;">REMOTE_PORT</td><td style="vertical-align:top;">:</td><td><div>54941</div></td></tr><tr><td style="font-weight:bold;vertical-align:top;">REQUEST_METHOD</td><td style="vertical-align:top;">:</td><td><div>GET</div></td></tr><tr><td style="font-weight:bold;vertical-align:top;">SCRIPT_NAME</td><td style="vertical-align:top;">:</td><td><div></div></td></tr><tr><td style="font-weight:bold;vertical-align:top;">SERVER_NAME</td><td style="vertical-align:top;">:</td><td><div>DESKTOP-9DJ4MK4</div></td></tr><tr><td style="font-weight:bold;vertical-align:top;">SERVER_PORT</td><td style="vertical-align:top;">:</td><td><div>8000</div></td></tr><tr><td style="font-weight:bold;vertical-align:top;">SERVER_PROTOCOL</td><td style="vertical-align:top;">:</td><td><div>HTTP/1.1</div></td></tr><tr><td style="font-weight:bold;vertical-align:top;">SERVER_SOFTWARE</td><td style="vertical-align:top;">:</td><td><div>Rocket 1.2.6</div></td></tr><tr><td style="font-weight:bold;vertical-align:top;">app_folders</td><td style="vertical-align:top;">:</td><td><div>set([&#x27;C:\\\\Users\\\\ferna\\\\Downloads\\\\web2py\\\\applications\\\\avalweb3\\\\&#x27;, &#x27;C:\\\\Users\\\\ferna\\\\Downloads\\\\web2py\\\\applications\\\\admin\\\\&#x27;, &#x27;C:\\\\Users\\\\ferna\\\\Downloads\\\\web2py\\\\applications\\\\welcome\\\\&#x27;])</div></td></tr><tr><td style="font-weight:bold;vertical-align:top;">applications_parent</td><td style="vertical-align:top;">:</td><td><div>C:\\Users\\ferna\\Downloads\\web2py</div></td></tr><tr><td style="font-weight:bold;vertical-align:top;">cmd_args</td><td style="vertical-align:top;">:</td><td><div><table></table></div></td></tr><tr><td style="font-weight:bold;vertical-align:top;">cmd_options</td><td style="vertical-align:top;">:</td><td><div>&lt;Values at 0x30748c8: {&#x27;verbose&#x27;: False, &#x27;ip&#x27;: &#x27;127.0.0.1&#x27;, &#x27;debuglevel&#x27;: 30, &#x27;with_scheduler&#x27;: False, &#x27;shutdown_timeout&#x27;: 5, &#x27;taskbar&#x27;: False, &#x27;with_coverage&#x27;: False, &#x27;pid_filename&#x27;: &#x27;httpserver.pid&#x27;, &#x27;maxthreads&#x27;: None, &#x27;softcron&#x27;: False, &#x27;server_name&#x27;: &#x27;DESKTOP-9DJ4MK4&#x27;, &#x27;bpython&#x27;: False, &#x27;nogui&#x27;: False, &#x27;port&#x27;: 8000, &#x27;print_errors&#x27;: False, &#x27;extcron&#x27;: False, &#x27;runcron&#x27;: False, &#x27;run_system_tests&#x27;: False, &#x27;test&#x27;: None, &#x27;folder&#x27;: &#x27;C:\\\\Users\\\\ferna\\\\Downloads\\\\web2py&#x27;, &#x27;config&#x27;: &#x27;&#x27;, &#x27;minthreads&#x27;: None, &#x27;shell&#x27;: None, &#x27;run&#x27;: &#x27;&#x27;, &#x27;log_filename&#x27;: &#x27;httpserver.log&#x27;, &#x27;profiler_dir&#x27;: None, &#x27;args&#x27;: [&#x27;&#x27;], &#x27;socket_timeout&#x27;: 5, &#x27;ssl_ca_certificate&#x27;: None, &#x27;scheduler&#x27;: None, &#x27;interfaces&#x27;: None, &#x27;ssl_private_key&#x27;: &#x27;&#x27;, &#x27;gae&#x27;: None, &#x27;password&#x27;: &#x27;******&#x27;, &#x27;request_queue_size&#x27;: 5, &#x27;ssl_certificate&#x27;: &#x27;&#x27;, &#x27;cronjob&#x27;: False, &#x27;numthreads&#x27;: None, &#x27;quiet&#x27;: False, &#x27;import_models&#x27;: False, &#x27;timeout&#x27;: 10, &#x27;plain&#x27;: False, &#x27;nobanner&#x27;: False}&gt;</div></td></tr><tr><td style="font-weight:bold;vertical-align:top;">db_sessions</td><td style="vertical-align:top;">:</td><td><div>set([])</div></td></tr><tr><td style="font-weight:bold;vertical-align:top;">debugging</td><td style="vertical-align:top;">:</td><td><div>True</div></td></tr><tr><td style="font-weight:bold;vertical-align:top;">gluon_parent</td><td style="vertical-align:top;">:</td><td><div>C:\\Users\\ferna\\Downloads\\web2py</div></td></tr><tr><td style="font-weight:bold;vertical-align:top;">http_accept</td><td style="vertical-align:top;">:</td><td><div>text/html,application/xhtml+xml,application/xml;q=0.9,image/webp,image/apng,*/*;q=0.8</div></td></tr><tr><td style="font-weight:bold;vertical-align:top;">http_accept_encoding</td><td style="vertical-align:top;">:</td><td><div>gzip, deflate, br</div></td></tr><tr><td style="font-weight:bold;vertical-align:top;">http_accept_language</td><td style="vertical-align:top;">:</td><td><div>pt-BR,pt;q=0.9,en-US;q=0.8,en;q=0.7</div></td></tr><tr><td style="font-weight:bold;vertical-align:top;">http_cache_control</td><td style="vertical-align:top;">:</td><td><div>max-age=0</div></td></tr><tr><td style="font-weight:bold;vertical-align:top;">http_connection</td><td style="vertical-align:top;">:</td><td><div>keep-alive</div></td></tr><tr><td style="font-weight:bold;vertical-align:top;">http_cookie</td><td style="vertical-align:top;">:</td><td><div>session_id_welcome=127.0.0.1-c03ae9e3-78a7-48e4-b278-7523b2badcbe; session_id_avalweb3=127.0.0.1-91324615-6d72-464f-b37d-5e44d8f10c82; session_id_admin=127.0.0.1-ac3ec7ce-2def-491e-bc91-d38ee061dcf5</div></td></tr><tr><td style="font-weight:bold;vertical-align:top;">http_host</td><td style="vertical-align:top;">:</td><td><div>127.0.0.1:8000</div></td></tr><tr><td style="font-weight:bold;vertical-align:top;">http_referer</td><td style="vertical-align:top;">:</td><td><div>http://127.0.0.1:8000/avalweb3/controlesaluno/home</div></td></tr><tr><td style="font-weight:bold;vertical-align:top;">http_upgrade_insecure_requests</td><td style="vertical-align:top;">:</td><td><div>1</div></td></tr><tr><td style="font-weight:bold;vertical-align:top;">http_user_agent</td><td style="vertical-align:top;">:</td><td><div>Mozilla/5.0 (Windows NT 10.0; Win64; x64) AppleWebKit/537.36 (KHTML, like Gecko) Chrome/62.0.3202.94 Safari/537.36</div></td></tr><tr><td style="font-weight:bold;vertical-align:top;">is_jython</td><td style="vertical-align:top;">:</td><td><div>False</div></td></tr><tr><td style="font-weight:bold;vertical-align:top;">is_py2</td><td style="vertical-align:top;">:</td><td><div>True</div></td></tr><tr><td style="font-weight:bold;vertical-align:top;">is_pypy</td><td style="vertical-align:top;">:</td><td><div>False</div></td></tr><tr><td style="font-weight:bold;vertical-align:top;">is_source</td><td style="vertical-align:top;">:</td><td><div>False</div></td></tr><tr><td style="font-weight:bold;vertical-align:top;">local_hosts</td><td style="vertical-align:top;">:</td><td><div><table><tr><td><div>2804:14c:488:bc8:9438:1fcd:ac1d:ad40</div></td></tr><tr><td><div>fe80::e1e1:53f2:e4c8:4b15%2</div></td></tr><tr><td><div>2804:14c:488:bc8:1557:4f9f:dfbf:6476</div></td></tr><tr><td><div>192.168.23.2</div></td></tr><tr><td><div>DESKTOP-9DJ4MK4</div></td></tr><tr><td><div>::ffff:127.0.0.1</div></td></tr><tr><td><div>::1</div></td></tr><tr><td><div>fe80::d4d:ccdd:cd42:99c9%19</div></td></tr><tr><td><div>192.168.0.13</div></td></tr><tr><td><div>fe80::1557:4f9f:dfbf:6476%14</div></td></tr><tr><td><div>127.0.0.1</div></td></tr><tr><td><div>192.168.56.1</div></td></tr></table></div></td></tr><tr><td style="font-weight:bold;vertical-align:top;">path_info</td><td style="vertical-align:top;">:</td><td><div>/avalweb3/provas/provas_dinamica</div></td></tr><tr><td style="font-weight:bold;vertical-align:top;">query_string</td><td style="vertical-align:top;">:</td><td><div></div></td></tr><tr><td style="font-weight:bold;vertical-align:top;">remote_addr</td><td style="vertical-align:top;">:</td><td><div>127.0.0.1</div></td></tr><tr><td style="font-weight:bold;vertical-align:top;">remote_port</td><td style="vertical-align:top;">:</td><td><div>54941</div></td></tr><tr><td style="font-weight:bold;vertical-align:top;">request_method</td><td style="vertical-align:top;">:</td><td><div>GET</div></td></tr><tr><td style="font-weight:bold;vertical-align:top;">request_uri</td><td style="vertical-align:top;">:</td><td><div>/avalweb3/provas/provas_dinamica</div></td></tr><tr><td style="font-weight:bold;vertical-align:top;">script_name</td><td style="vertical-align:top;">:</td><td><div></div></td></tr><tr><td style="font-weight:bold;vertical-align:top;">server_name</td><td style="vertical-align:top;">:</td><td><div>DESKTOP-9DJ4MK4</div></td></tr><tr><td style="font-weight:bold;vertical-align:top;">server_port</td><td style="vertical-align:top;">:</td><td><div>8000</div></td></tr><tr><td style="font-weight:bold;vertical-align:top;">server_protocol</td><td style="vertical-align:top;">:</td><td><div>HTTP/1.1</div></td></tr><tr><td style="font-weight:bold;vertical-align:top;">server_software</td><td style="vertical-align:top;">:</td><td><div>Rocket 1.2.6</div></td></tr><tr><td style="font-weight:bold;vertical-align:top;">web2py_path</td><td style="vertical-align:top;">:</td><td><div>C:\\Users\\ferna\\Downloads\\web2py</div></td></tr><tr><td style="font-weight:bold;vertical-align:top;">web2py_version</td><td style="vertical-align:top;">:</td><td><div>2.15.4-stable+timestamp.2017.09.02.04.02.22</div></td></tr><tr><td style="font-weight:bold;vertical-align:top;">wsgi.errors</td><td style="vertical-align:top;">:</td><td><div>&lt;open file &#x27;&lt;stderr&gt;&#x27;, mode &#x27;w&#x27; at 0x0213D0D0&gt;</div></td></tr><tr><td style="font-weight:bold;vertical-align:top;">wsgi.file_wrapper</td><td style="vertical-align:top;">:</td><td><div>&lt;class wsgiref.util.FileWrapper at 0x03134B20&gt;</div></td></tr><tr><td style="font-weight:bold;vertical-align:top;">wsgi.input</td><td style="vertical-align:top;">:</td><td><div>&lt;socket._fileobject object at 0x097B3CF0&gt;</div></td></tr><tr><td style="font-weight:bold;vertical-align:top;">wsgi.multiprocess</td><td style="vertical-align:top;">:</td><td><div>False</div></td></tr><tr><td style="font-weight:bold;vertical-align:top;">wsgi.multithread</td><td style="vertical-align:top;">:</td><td><div>True</div></td></tr><tr><td style="font-weight:bold;vertical-align:top;">wsgi.run_once</td><td style="vertical-align:top;">:</td><td><div>False</div></td></tr><tr><td style="font-weight:bold;vertical-align:top;">wsgi.url_scheme</td><td style="vertical-align:top;">:</td><td><div>http</div></td></tr><tr><td style="font-weight:bold;vertical-align:top;">wsgi.version</td><td style="vertical-align:top;">:</td><td><div><table><tr><td><div>1</div></td></tr><tr><td><div>0</div></td></tr></table></div></td></tr><tr><td style="font-weight:bold;vertical-align:top;">wsgi_errors</td><td style="vertical-align:top;">:</td><td><div>&lt;open file &#x27;&lt;stderr&gt;&#x27;, mode &#x27;w&#x27; at 0x0213D0D0&gt;</div></td></tr><tr><td style="font-weight:bold;vertical-align:top;">wsgi_file_wrapper</td><td style="vertical-align:top;">:</td><td><div>&lt;class wsgiref.util.FileWrapper at 0x03134B20&gt;</div></td></tr><tr><td style="font-weight:bold;vertical-align:top;">wsgi_input</td><td style="vertical-align:top;">:</td><td><div>&lt;socket._fileobject object at 0x097B3CF0&gt;</div></td></tr><tr><td style="font-weight:bold;vertical-align:top;">wsgi_multiprocess</td><td style="vertical-align:top;">:</td><td><div>False</div></td></tr><tr><td style="font-weight:bold;vertical-align:top;">wsgi_multithread</td><td style="vertical-align:top;">:</td><td><div>True</div></td></tr><tr><td style="font-weight:bold;vertical-align:top;">wsgi_run_once</td><td style="vertical-align:top;">:</td><td><div>False</div></td></tr><tr><td style="font-weight:bold;vertical-align:top;">wsgi_url_scheme</td><td style="vertical-align:top;">:</td><td><div>http</div></td></tr><tr><td style="font-weight:bold;vertical-align:top;">wsgi_version</td><td style="vertical-align:top;">:</td><td><div><table><tr><td><div>1</div></td></tr><tr><td><div>0</div></td></tr></table></div></td></tr></table></div></td></tr><tr><td style="font-weight:bold;vertical-align:top;">extension</td><td style="vertical-align:top;">:</td><td><div>html</div></td></tr><tr><td style="font-weight:bold;vertical-align:top;">folder</td><td style="vertical-align:top;">:</td><td><div>C:\\Users\\ferna\\Downloads\\web2py\\applications\\avalweb3\\</div></td></tr><tr><td style="font-weight:bold;vertical-align:top;">function</td><td style="vertical-align:top;">:</td><td><div>provas_dinamica</div></td></tr><tr><td style="font-weight:bold;vertical-align:top;">global_settings</td><td style="vertical-align:top;">:</td><td><div><table><tr><td style="font-weight:bold;vertical-align:top;">app_folders</td><td style="vertical-align:top;">:</td><td><div>set([&#x27;C:\\\\Users\\\\ferna\\\\Downloads\\\\web2py\\\\applications\\\\avalweb3\\\\&#x27;, &#x27;C:\\\\Users\\\\ferna\\\\Downloads\\\\web2py\\\\applications\\\\admin\\\\&#x27;, &#x27;C:\\\\Users\\\\ferna\\\\Downloads\\\\web2py\\\\applications\\\\welcome\\\\&#x27;])</div></td></tr><tr><td style="font-weight:bold;vertical-align:top;">applications_parent</td><td style="vertical-align:top;">:</td><td><div>C:\\Users\\ferna\\Downloads\\web2py</div></td></tr><tr><td style="font-weight:bold;vertical-align:top;">cmd_args</td><td style="vertical-align:top;">:</td><td><div><table></table></div></td></tr><tr><td style="font-weight:bold;vertical-align:top;">cmd_options</td><td style="vertical-align:top;">:</td><td><div>&lt;Values at 0x30748c8: {&#x27;verbose&#x27;: False, &#x27;ip&#x27;: &#x27;127.0.0.1&#x27;, &#x27;debuglevel&#x27;: 30, &#x27;with_scheduler&#x27;: False, &#x27;shutdown_timeout&#x27;: 5, &#x27;taskbar&#x27;: False, &#x27;with_coverage&#x27;: False, &#x27;pid_filename&#x27;: &#x27;httpserver.pid&#x27;, &#x27;maxthreads&#x27;: None, &#x27;softcron&#x27;: False, &#x27;server_name&#x27;: &#x27;DESKTOP-9DJ4MK4&#x27;, &#x27;bpython&#x27;: False, &#x27;nogui&#x27;: False, &#x27;port&#x27;: 8000, &#x27;print_errors&#x27;: False, &#x27;extcron&#x27;: False, &#x27;runcron&#x27;: False, &#x27;run_system_tests&#x27;: False, &#x27;test&#x27;: None, &#x27;folder&#x27;: &#x27;C:\\\\Users\\\\ferna\\\\Downloads\\\\web2py&#x27;, &#x27;config&#x27;: &#x27;&#x27;, &#x27;minthreads&#x27;: None, &#x27;shell&#x27;: None, &#x27;run&#x27;: &#x27;&#x27;, &#x27;log_filename&#x27;: &#x27;httpserver.log&#x27;, &#x27;profiler_dir&#x27;: None, &#x27;args&#x27;: [&#x27;&#x27;], &#x27;socket_timeout&#x27;: 5, &#x27;ssl_ca_certificate&#x27;: None, &#x27;scheduler&#x27;: None, &#x27;interfaces&#x27;: None, &#x27;ssl_private_key&#x27;: &#x27;&#x27;, &#x27;gae&#x27;: None, &#x27;password&#x27;: &#x27;******&#x27;, &#x27;request_queue_size&#x27;: 5, &#x27;ssl_certificate&#x27;: &#x27;&#x27;, &#x27;cronjob&#x27;: False, &#x27;numthreads&#x27;: None, &#x27;quiet&#x27;: False, &#x27;import_models&#x27;: False, &#x27;timeout&#x27;: 10, &#x27;plain&#x27;: False, &#x27;nobanner&#x27;: False}&gt;</div></td></tr><tr><td style="font-weight:bold;vertical-align:top;">db_sessions</td><td style="vertical-align:top;">:</td><td><div>set([])</div></td></tr><tr><td style="font-weight:bold;vertical-align:top;">debugging</td><td style="vertical-align:top;">:</td><td><div>True</div></td></tr><tr><td style="font-weight:bold;vertical-align:top;">gluon_parent</td><td style="vertical-align:top;">:</td><td><div>C:\\Users\\ferna\\Downloads\\web2py</div></td></tr><tr><td style="font-weight:bold;vertical-align:top;">is_jython</td><td style="vertical-align:top;">:</td><td><div>False</div></td></tr><tr><td style="font-weight:bold;vertical-align:top;">is_py2</td><td style="vertical-align:top;">:</td><td><div>True</div></td></tr><tr><td style="font-weight:bold;vertical-align:top;">is_pypy</td><td style="vertical-align:top;">:</td><td><div>False</div></td></tr><tr><td style="font-weight:bold;vertical-align:top;">is_source</td><td style="vertical-align:top;">:</td><td><div>False</div></td></tr><tr><td style="font-weight:bold;vertical-align:top;">local_hosts</td><td style="vertical-align:top;">:</td><td><div><table><tr><td><div>2804:14c:488:bc8:9438:1fcd:ac1d:ad40</div></td></tr><tr><td><div>fe80::e1e1:53f2:e4c8:4b15%2</div></td></tr><tr><td><div>2804:14c:488:bc8:1557:4f9f:dfbf:6476</div></td></tr><tr><td><div>192.168.23.2</div></td></tr><tr><td><div>DESKTOP-9DJ4MK4</div></td></tr><tr><td><div>::ffff:127.0.0.1</div></td></tr><tr><td><div>::1</div></td></tr><tr><td><div>fe80::d4d:ccdd:cd42:99c9%19</div></td></tr><tr><td><div>192.168.0.13</div></td></tr><tr><td><div>fe80::1557:4f9f:dfbf:6476%14</div></td></tr><tr><td><div>127.0.0.1</div></td></tr><tr><td><div>192.168.56.1</div></td></tr></table></div></td></tr><tr><td style="font-weight:bold;vertical-align:top;">web2py_version</td><td style="vertical-align:top;">:</td><td><div>2.15.4-stable+timestamp.2017.09.02.04.02.22</div></td></tr></table></div></td></tr><tr><td style="font-weight:bold;vertical-align:top;">is_https</td><td style="vertical-align:top;">:</td><td><div>False</div></td></tr><tr><td style="font-weight:bold;vertical-align:top;">is_local</td><td style="vertical-align:top;">:</td><td><div>True</div></td></tr><tr><td style="font-weight:bold;vertical-align:top;">is_restful</td><td style="vertical-align:top;">:</td><td><div>False</div></td></tr><tr><td style="font-weight:bold;vertical-align:top;">is_scheduler</td><td style="vertical-align:top;">:</td><td><div>False</div></td></tr><tr><td style="font-weight:bold;vertical-align:top;">is_shell</td><td style="vertical-align:top;">:</td><td><div>False</div></td></tr><tr><td style="font-weight:bold;vertical-align:top;">now</td><td style="vertical-align:top;">:</td><td><div>datetime.datetime(2017, 11, 26, 19, 40, 34, 24000)</div></td></tr><tr><td style="font-weight:bold;vertical-align:top;">raw_args</td><td style="vertical-align:top;">:</td><td><div></div></td></tr><tr><td style="font-weight:bold;vertical-align:top;">raw_extension</td><td style="vertical-align:top;">:</td><td><div>None</div></td></tr><tr><td style="font-weight:bold;vertical-align:top;">url</td><td style="vertical-align:top;">:</td><td><div>/avalweb3/provas/provas_dinamica</div></td></tr><tr><td style="font-weight:bold;vertical-align:top;">utcnow</td><td style="vertical-align:top;">:</td><td><div>datetime.datetime(2017, 11, 26, 21, 40, 34, 24000)</div></td></tr><tr><td style="font-weight:bold;vertical-align:top;">wsgi</td><td style="vertical-align:top;">:</td><td><div>&lt;gluon.main.LazyWSGI object at 0x0983F570&gt;</div></td></tr></table></div>'
tRp60
sS'frames'
p61
(lp62
(dp63
S'file'
p64
S'C:\\Users\\ferna\\Downloads\\web2py\\gluon\\restricted.py'
p65
sS'dump'
p66
(dp67
S'environment'
p68
S"{'A': <class 'gluon.html.A'>, 'ANY_OF': <class 'gluon.validators.ANY_OF'>, 'ASSIGNJS': <function ASSIGNJS>, 'B': <class 'gluon.html.B'>, 'BEAUTIFY': <class 'gluon.html.BEAUTIFY'>, 'BODY': <class 'gluon.html.BODY'>, 'BR': <class 'gluon.html.BR'>, 'BUTTON': <class 'gluon.html.BUTTON'>, 'CAT': <class 'gluon.html.CAT'>, 'CENTER': <class 'gluon.html.CENTER'>, ...}"
p69
sS'ccode'
p70
S'<code object <module> at 095ADB60, file "C:\\User...ications\\avalweb3\\controllers/provas.py", line 1>'
p71
ssS'lnum'
p72
I219
sS'lines'
p73
(dp74
I214
S'    if environment is None:'
p75
sI215
S'        environment = {}'
p76
sI216
S"    environment['__file__'] = layer"
p77
sI217
S"    environment['__name__'] = '__restricted__'"
p78
sI218
S'    try:'
p79
sI219
S'        exec(ccode, environment)'
p80
sI220
S'    except HTTP:'
p81
sI221
S'        raise'
p82
sI222
S'    except RestrictedError:'
p83
sI223
S'        # do not encapsulate (obfuscate) the original RestrictedError'
p84
ssS'call'
p85
S'(ccode=<code object <module> at 095ADB60, file "C:\\User...ications\\avalweb3\\controllers/provas.py", line 1>, environment={\'A\': <class \'gluon.html.A\'>, \'ANY_OF\': <class \'gluon.validators.ANY_OF\'>, \'ASSIGNJS\': <function ASSIGNJS>, \'B\': <class \'gluon.html.B\'>, \'BEAUTIFY\': <class \'gluon.html.BEAUTIFY\'>, \'BODY\': <class \'gluon.html.BODY\'>, \'BR\': <class \'gluon.html.BR\'>, \'BUTTON\': <class \'gluon.html.BUTTON\'>, \'CAT\': <class \'gluon.html.CAT\'>, \'CENTER\': <class \'gluon.html.CENTER\'>, ...}, layer=r\'C:\\Users\\ferna\\Downloads\\web2py\\applications\\avalweb3\\controllers/provas.py\', scode=<code object <module> at 095ADB60, file "C:\\User...ications\\avalweb3\\controllers/provas.py", line 1>)'
p86
sS'func'
p87
S'restricted'
p88
sa(dp89
g64
S'C:\\Users\\ferna\\Downloads\\web2py\\applications\\avalweb3\\controllers\\provas.py'
p90
sg66
(dp91
sg72
I70
sg73
(dp92
I64
S'\t\tdivs += "<ul><li style=\'color:green;\'> Resposta 1:<br> " + questao.resposta + "</li>" + "<li>Feedback:<br>" + questao.feed_resp + "</li></ul>"'
p93
sI65
S'\t\tdivs += "<ul><li style=\'color:red;\'>Resposta 2:<br>" + questao.resp1 + "</li>" + "<li>Feedback:<br>" + questao.feed_r1 + "</li></ul>"'
p94
sI66
S'\t\tdivs += "<ul><li style=\'color:red;\'>Resposta 3:<br>" + questao.resp2 + "</li>" + "<li>Feedback:<br>" + questao.feed_r2 + "</li></ul>"'
p95
sI67
S'\t\tdivs += "<ul><li style=\'color:red;\'>Resposta 4:<br>" + questao.resp3 + "</li>" + "<li>Feedback:<br>" + questao.feed_r3 + "</li></ul></div>"'
p96
sI68
S''
sI69
S'\treturn {"divs" : XML(divs)}'
p97
sI60
S'\tdivs = ""'
p98
sI61
S'\tfor i in range(len(questoes)):'
p99
sI62
S'\t\tquestao = db(db.questoes.id==int(questoes[i]), db.questoes.ALL).select().first()'
p100
sI63
S'\t\tdivs += \'<div style="display:inline-block; margin-right: 150px; margin-bottom: 50px;"><p style="margin-left:20px;">Quest\xc3\xa3o \' + str(i+1) + "</p>"'
p101
ssg85
S'()'
p102
sg87
S'<module>'
p103
sa(dp104
g64
S'C:\\Users\\ferna\\Downloads\\web2py\\gluon\\globals.py'
p105
sg66
(dp106
S'self'
p107
S'undefined'
p108
sS'f'
S'<function provas_dinamica>'
p109
ssg72
I414
sg73
(dp110
I416
S'        self._custom_commit = None'
p111
sI417
S'        self._custom_rollback = None'
p112
sI418
S"        self.generic_patterns = ['*']"
p113
sI409
S"        self.flash = ''            # used by the default view layout"
p114
sI410
S'        self.meta = Storage()      # used by web2py_ajax.html'
p115
sI411
S'        self.menu = []             # used by the default view layout'
p116
sI412
S'        self.files = []            # used by web2py_ajax.html'
p117
sI413
S'        self._vars = None'
p118
sI414
S'        self._caller = lambda f: f()'
p119
sI415
S'        self._view_environment = None'
p120
ssg85
S'(f=<function provas_dinamica>)'
p121
sg87
S'<lambda>'
p122
sa(dp123
g64
S'C:\\Users\\ferna\\Downloads\\web2py\\applications\\avalweb3\\controllers\\provas.py'
p124
sg66
(dp125
S'orderby'
p126
g108
sS'row2'
p127
g108
sS'db.questoes'
p128
S'<Table questoes (id, topic_name, user_prof, enun...ficuldade, acerto_goto, erro_goto, topic, parte)>'
p129
sS').select'
p130
g108
sS'row.dif_inicio'
p131
S"'F\\xc3\\xa1cil'"
p132
sS'global db'
p133
S'<DAL uri="mysql:******@localhost/avalweb">'
p134
sS'db.questoes.dificuldade'
p135
S'<pydal.objects.Field object>'
p136
sS'row'
p137
S"<Row {'cod_prova': 1L, 'user_prof': 1L, 'parte':..., 'num_total': 2L, 'dif_inicio': 'F\\xc3\\xa1cil'}>"
p138
ssg72
I8
sg73
(dp139
I3
S'def provas_dinamica():'
p140
sI4
S'\tdicionario = {}'
p141
sI5
S'\tprovaId = session.dinamica'
p142
sI6
S''
sI7
S'\trow = db(db.provasd.id==provaId, db.provasd.dif_inicio).select().first()'
p143
sI8
S"\trow2 = db().select(db.questoes.dificuldade==row.dif_inicio , orderby='<random>').first()"
p144
sI9
S''
sI10
S'\tdicionario.update({"certo":row2.resposta, "errado1":row2.resp1, "errado2":row2.resp2, "errado3":row2.resp3})'
p145
sI11
S"\tfield = Field('questao 1', requires=IS_IN_SET(dicionario), widget=SQLFORM.widgets.radio.widget)"
p146
sI12
S'\tform = SQLFORM.factory(field)'
p147
ssg85
S'()'
p148
sg87
S'provas_dinamica'
p149
sa(dp150
g64
S'C:\\Users\\ferna\\Downloads\\web2py\\gluon\\packages\\dal\\pydal\\objects.py'
p151
sg66
(dp152
S'self.query'
p153
S'None'
p154
sS'adapter.select'
p155
S'<bound method MySQL.select of <pydal.adapters.mysql.MySQL object>>'
p156
sS'fields'
p157
S"[<Query (`questoes`.`dificuldade` = 'F\xc3\xa1cil')>]"
p158
sS'adapter'
p159
S'<pydal.adapters.mysql.MySQL object>'
p160
sS'attributes'
p161
S"{'orderby': '<random>'}"
p162
sS'self'
p163
S'<Set None>'
p164
ssg72
I2211
sg73
(dp165
I2208
S"                                    attributes.get('orderby', None),"
p166
sI2209
S"                                    attributes.get('groupby', None))"
p167
sI2210
S'        fields = adapter.expand_all(fields, tablenames)'
p168
sI2211
S'        return adapter.select(self.query, fields, attributes)'
p169
sI2212
S''
sI2213
S'    def iterselect(self, *fields, **attributes):'
p170
sI2214
S'        adapter = self.db._adapter'
p171
sI2215
S'        tablenames = adapter.tables(self.query,'
p172
sI2206
S"                                    attributes.get('join', None),"
p173
sI2207
S"                                    attributes.get('left', None),"
p174
ssg85
S"(self=<Set None>, *fields=[<Query (`questoes`.`dificuldade` = 'F\xc3\xa1cil')>], **attributes={'orderby': '<random>'})"
p175
sg87
S'select'
p176
sa(dp177
g64
S'C:\\Users\\ferna\\Downloads\\web2py\\gluon\\packages\\dal\\pydal\\adapters\\base.py'
p178
sg66
(dp179
S'fields'
p180
S"[<Query (`questoes`.`dificuldade` = 'F\xc3\xa1cil')>]"
p181
sS'self'
p182
S'<pydal.adapters.mysql.MySQL object>'
p183
sS'self._select_wcols'
p184
S'<bound method MySQL._select_wcols of <pydal.adapters.mysql.MySQL object>>'
p185
sS'sql'
p186
g108
sS'query'
p187
S'None'
p188
sS'colnames'
p189
g108
sS'attributes'
p190
S"{'orderby': '<random>'}"
p191
ssg72
I757
sg73
(dp192
I752
S'            time_expire)'
p193
sI753
S'        ret._restore_fields(fields)'
p194
sI754
S'        return ret'
p195
sI755
S''
sI756
S'    def select(self, query, fields, attributes):'
p196
sI757
S'        colnames, sql = self._select_wcols(query, fields, **attributes)'
p197
sI758
S"        cache = attributes.get('cache', None)"
p198
sI759
S"        if cache and attributes.get('cacheable', False):"
p199
sI760
S'            return self._cached_select('
p200
sI761
S'                cache, sql, fields, attributes, colnames)'
p201
ssg85
S"(self=<pydal.adapters.mysql.MySQL object>, query=None, fields=[<Query (`questoes`.`dificuldade` = 'F\xc3\xa1cil')>], attributes={'orderby': '<random>'})"
p202
sg87
g176
sa(dp203
g64
S'C:\\Users\\ferna\\Downloads\\web2py\\gluon\\packages\\dal\\pydal\\adapters\\base.py'
p204
sg66
(dp205
S'x'
S"<Query (`questoes`.`dificuldade` = 'F\xc3\xa1cil')>"
p206
sS'fields'
p207
S"[<Query (`questoes`.`dificuldade` = 'F\xc3\xa1cil')>]"
p208
sS'self'
p209
S'<pydal.adapters.mysql.MySQL object>'
p210
sS'query_env'
p211
S"{'current_scope': ['questoes'], 'parent_scope': []}"
p212
sS'self._geoexpand'
p213
S'<bound method MySQL._geoexpand of <pydal.adapters.mysql.MySQL object>>'
p214
sS'sql_fields'
p215
g108
ssg72
I632
sg73
(dp216
I627
S'        current_scope = outer_scoped + list(tablemap)'
p217
sI628
S'        query_env = dict(current_scope=current_scope,'
p218
sI629
S'            parent_scope=outer_scoped)'
p219
sI630
S'        #: prepare columns and expand fields'
p220
sI631
S'        colnames = [self._colexpand(x, query_env) for x in fields]'
p221
sI632
S"        sql_fields = ', '.join(self._geoexpand(x, query_env) for x in fields)"
p222
sI633
S'        table_alias = lambda name: tablemap[name].query_name(outer_scoped)[0]'
p223
sI634
S'        if join and not left:'
p224
sI635
S'            cross_joins = iexcluded + list(itables_to_merge)'
p225
sI636
S'            tokens = [table_alias(cross_joins[0])]'
p226
ssg85
S"(self=<pydal.adapters.mysql.MySQL object>, query=None, fields=[<Query (`questoes`.`dificuldade` = 'F\xc3\xa1cil')>], left=False, join=False, distinct=False, orderby='<random>', groupby=False, having=False, limitby=False, orderby_on_limitby=True, for_update=False, outer_scoped=[], required=None, cache=None, cacheable=None, processor=None)"
p227
sg87
S'_select_wcols'
p228
sa(dp229
g64
S'C:\\Users\\ferna\\Downloads\\web2py\\gluon\\packages\\dal\\pydal\\adapters\\base.py'
p230
sg66
(dp231
S'x'
S"<Query (`questoes`.`dificuldade` = 'F\xc3\xa1cil')>"
p232
sS'fields'
p233
g108
sS'self'
p234
S'<pydal.adapters.mysql.MySQL object>'
p235
sS'query_env'
p236
S"{'current_scope': ['questoes'], 'parent_scope': []}"
p237
sS'self._geoexpand'
p238
S'<bound method MySQL._geoexpand of <pydal.adapters.mysql.MySQL object>>'
p239
sS'sql_fields'
p240
g108
ssg72
I632
sg73
(dp241
I627
S'        current_scope = outer_scoped + list(tablemap)'
p242
sI628
S'        query_env = dict(current_scope=current_scope,'
p243
sI629
S'            parent_scope=outer_scoped)'
p244
sI630
S'        #: prepare columns and expand fields'
p245
sI631
S'        colnames = [self._colexpand(x, query_env) for x in fields]'
p246
sI632
S"        sql_fields = ', '.join(self._geoexpand(x, query_env) for x in fields)"
p247
sI633
S'        table_alias = lambda name: tablemap[name].query_name(outer_scoped)[0]'
p248
sI634
S'        if join and not left:'
p249
sI635
S'            cross_joins = iexcluded + list(itables_to_merge)'
p250
sI636
S'            tokens = [table_alias(cross_joins[0])]'
p251
ssg85
S"((x=<Query (`questoes`.`dificuldade` = 'F\xc3\xa1cil')>,))"
p252
sg87
S'<genexpr>'
p253
sa(dp254
g64
S'C:\\Users\\ferna\\Downloads\\web2py\\gluon\\packages\\dal\\pydal\\adapters\\base.py'
p255
sg66
(dp256
S'field.type'
p257
g108
sS'builtinisinstance'
p258
S'<built-in function isinstance>'
p259
sS'builtinstr'
p260
S"<type 'str'>"
p261
sS'global Field'
p262
S"<class 'pydal.objects.Field'>"
p263
sS'field'
p264
S"<Query (`questoes`.`dificuldade` = 'F\xc3\xa1cil')>"
p265
ssg72
I550
sg73
(dp266
I545
S''
sI546
S'    def _colexpand(self, field, query_env):'
p267
sI547
S'        return self.expand(field, colnames=True, query_env=query_env)'
p268
sI548
S''
sI549
S'    def _geoexpand(self, field, query_env):'
p269
sI550
S"        if isinstance(field.type, str) and field.type.startswith('geo') and \\"
p270
sI551
S'           isinstance(field, Field):'
p271
sI552
S'            field = field.st_astext()'
p272
sI553
S'        return self.expand(field, query_env=query_env)'
p273
sI554
S''
ssg85
S"(self=<pydal.adapters.mysql.MySQL object>, field=<Query (`questoes`.`dificuldade` = 'F\xc3\xa1cil')>, query_env={'current_scope': ['questoes'], 'parent_scope': []})"
p274
sg87
S'_geoexpand'
p275
sasS'pyver'
p276
S'Python 2.7.9: C:\\Users\\ferna\\Downloads\\web2py\\web2py.exe (prefix: )'
p277
sS'session'
p278
g59
(S's\xa8\x01\x00\x00<div><table><tr><td style="font-weight:bold;vertical-align:top;">dinamica</td><td style="vertical-align:top;">:</td><td><div>1L</div></td></tr><tr><td style="font-weight:bold;vertical-align:top;">user_aluno</td><td style="vertical-align:top;">:</td><td><div>1L</div></td></tr><tr><td style="font-weight:bold;vertical-align:top;">user_prof</td><td style="vertical-align:top;">:</td><td><div>None</div></td></tr></table></div>'
tRp279
sS'etype'
p280
S"<type 'exceptions.AttributeError'>"
p281
sS'date'
p282
S'Sun Nov 26 19:40:34 2017'
p283
sS'response'
p284
g59
(S's\xd6\x18\x00\x00<div><table><tr><td style="font-weight:bold;vertical-align:top;">body</td><td style="vertical-align:top;">:</td><td><div>&lt;cStringIO.StringO object at 0x0983F440&gt;</div></td></tr><tr><td style="font-weight:bold;vertical-align:top;">cookies</td><td style="vertical-align:top;">:</td><td><div><table><tr><td style="font-weight:bold;vertical-align:top;">session_id_avalweb3</td><td style="vertical-align:top;">:</td><td><div>127.0.0.1-91324615-6d72-464f-b37d-5e44d8f10c82<table><tr><td style="font-weight:bold;vertical-align:top;">comment</td><td style="vertical-align:top;">:</td><td><div></div></td></tr><tr><td style="font-weight:bold;vertical-align:top;">domain</td><td style="vertical-align:top;">:</td><td><div></div></td></tr><tr><td style="font-weight:bold;vertical-align:top;">expires</td><td style="vertical-align:top;">:</td><td><div></div></td></tr><tr><td style="font-weight:bold;vertical-align:top;">httponly</td><td style="vertical-align:top;">:</td><td><div></div></td></tr><tr><td style="font-weight:bold;vertical-align:top;">max-age</td><td style="vertical-align:top;">:</td><td><div></div></td></tr><tr><td style="font-weight:bold;vertical-align:top;">path</td><td style="vertical-align:top;">:</td><td><div>/</div></td></tr><tr><td style="font-weight:bold;vertical-align:top;">secure</td><td style="vertical-align:top;">:</td><td><div></div></td></tr><tr><td style="font-weight:bold;vertical-align:top;">version</td><td style="vertical-align:top;">:</td><td><div></div></td></tr></table></div></td></tr></table></div></td></tr><tr><td style="font-weight:bold;vertical-align:top;">delimiters</td><td style="vertical-align:top;">:</td><td><div><table><tr><td><div>{{</div></td></tr><tr><td><div>}}</div></td></tr></table></div></td></tr><tr><td style="font-weight:bold;vertical-align:top;">files</td><td style="vertical-align:top;">:</td><td><div><table></table></div></td></tr><tr><td style="font-weight:bold;vertical-align:top;">flash</td><td style="vertical-align:top;">:</td><td><div></div></td></tr><tr><td style="font-weight:bold;vertical-align:top;">form_label_separator</td><td style="vertical-align:top;">:</td><td><div>: </div></td></tr><tr><td style="font-weight:bold;vertical-align:top;">formstyle</td><td style="vertical-align:top;">:</td><td><div>table3cols</div></td></tr><tr><td style="font-weight:bold;vertical-align:top;">generic_patterns</td><td style="vertical-align:top;">:</td><td><div><table><tr><td><div>*</div></td></tr></table></div></td></tr><tr><td style="font-weight:bold;vertical-align:top;">headers</td><td style="vertical-align:top;">:</td><td><div><table><tr><td style="font-weight:bold;vertical-align:top;">X-Powered-By</td><td style="vertical-align:top;">:</td><td><div>web2py</div></td></tr></table></div></td></tr><tr><td style="font-weight:bold;vertical-align:top;">menu</td><td style="vertical-align:top;">:</td><td><div><table><tr><td><div><table><tr><td><div>Home</div></td></tr><tr><td><div>False</div></td></tr><tr><td><div>/avalweb3/default/index</div></td></tr></table></div></td></tr><tr><td><div><table><tr><td><div>Sair</div></td></tr><tr><td><div>False</div></td></tr><tr><td><div>/avalweb3/logout/logout</div></td></tr></table></div></td></tr></table></div></td></tr><tr><td style="font-weight:bold;vertical-align:top;">meta</td><td style="vertical-align:top;">:</td><td><div><table></table></div></td></tr><tr><td style="font-weight:bold;vertical-align:top;">models_to_run</td><td style="vertical-align:top;">:</td><td><div><table><tr><td><div>^\\w+\\.py$</div></td></tr><tr><td><div>^provas/\\w+\\.py$</div></td></tr><tr><td><div>^provas/provas_dinamica/\\w+\\.py$</div></td></tr></table></div></td></tr><tr><td style="font-weight:bold;vertical-align:top;">postprocessing</td><td style="vertical-align:top;">:</td><td><div><table></table></div></td></tr><tr><td style="font-weight:bold;vertical-align:top;">session_client</td><td style="vertical-align:top;">:</td><td><div>127.0.0.1</div></td></tr><tr><td style="font-weight:bold;vertical-align:top;">session_cookie_compression_level</td><td style="vertical-align:top;">:</td><td><div>None</div></td></tr><tr><td style="font-weight:bold;vertical-align:top;">session_cookie_expires</td><td style="vertical-align:top;">:</td><td><div>None</div></td></tr><tr><td style="font-weight:bold;vertical-align:top;">session_data_name</td><td style="vertical-align:top;">:</td><td><div>session_data_avalweb3</div></td></tr><tr><td style="font-weight:bold;vertical-align:top;">session_file</td><td style="vertical-align:top;">:</td><td><div>&lt;open file &#x27;C:\\\\Users\\\\ferna\\\\Downloads\\\\web2py\\\\applications\\\\avalweb3\\\\sessions\\\\0c4\\\\1f1\\\\127.0.0.1-91324615-6d72-464f-b37d-5e44d8f10c82&#x27;, mode &#x27;rb+&#x27; at 0x095B6CD8&gt;</div></td></tr><tr><td style="font-weight:bold;vertical-align:top;">session_filename</td><td style="vertical-align:top;">:</td><td><div>C:\\Users\\ferna\\Downloads\\web2py\\applications\\avalweb3\\sessions\\127.0.0.1-91324615-6d72-464f-b37d-5e44d8f10c82</div></td></tr><tr><td style="font-weight:bold;vertical-align:top;">session_hash</td><td style="vertical-align:top;">:</td><td><div>9762a1853954a93748c082114751b6c9</div></td></tr><tr><td style="font-weight:bold;vertical-align:top;">session_id</td><td style="vertical-align:top;">:</td><td><div>127.0.0.1-91324615-6d72-464f-b37d-5e44d8f10c82</div></td></tr><tr><td style="font-weight:bold;vertical-align:top;">session_id_name</td><td style="vertical-align:top;">:</td><td><div>session_id_avalweb3</div></td></tr><tr><td style="font-weight:bold;vertical-align:top;">session_locked</td><td style="vertical-align:top;">:</td><td><div>True</div></td></tr><tr><td style="font-weight:bold;vertical-align:top;">session_masterapp</td><td style="vertical-align:top;">:</td><td><div>avalweb3</div></td></tr><tr><td style="font-weight:bold;vertical-align:top;">session_new</td><td style="vertical-align:top;">:</td><td><div>False</div></td></tr><tr><td style="font-weight:bold;vertical-align:top;">session_storage_type</td><td style="vertical-align:top;">:</td><td><div>file</div></td></tr><tr><td style="font-weight:bold;vertical-align:top;">status</td><td style="vertical-align:top;">:</td><td><div>200</div></td></tr><tr><td style="font-weight:bold;vertical-align:top;">view</td><td style="vertical-align:top;">:</td><td><div>provas/provas_dinamica.html</div></td></tr></table></div>'
tRp285
sS'locals'
p286
(dp287
S'query_env'
p288
S"{'current_scope': ['questoes'], 'parent_scope': []}"
p289
sS'self'
p290
S'<pydal.adapters.mysql.MySQL object>'
p291
sS'field'
p292
S"<Query (`questoes`.`dificuldade` = 'F\xc3\xa1cil')>"
p293
sssS'traceback'
p294
S'Traceback (most recent call last):\n  File "C:\\Users\\ferna\\Downloads\\web2py\\gluon\\restricted.py", line 219, in restricted\n    exec(ccode, environment)\n  File "C:\\Users\\ferna\\Downloads\\web2py\\applications\\avalweb3\\controllers/provas.py", line 70, in <module>\n  File "C:\\Users\\ferna\\Downloads\\web2py\\gluon\\globals.py", line 414, in <lambda>\n    self._caller = lambda f: f()\n  File "C:\\Users\\ferna\\Downloads\\web2py\\applications\\avalweb3\\controllers/provas.py", line 8, in provas_dinamica\n    row2 = db().select(db.questoes.dificuldade==row.dif_inicio , orderby=\'<random>\').first()\n  File "C:\\Users\\ferna\\Downloads\\web2py\\gluon\\packages\\dal\\pydal\\objects.py", line 2211, in select\n    return adapter.select(self.query, fields, attributes)\n  File "C:\\Users\\ferna\\Downloads\\web2py\\gluon\\packages\\dal\\pydal\\adapters\\base.py", line 757, in select\n    colnames, sql = self._select_wcols(query, fields, **attributes)\n  File "C:\\Users\\ferna\\Downloads\\web2py\\gluon\\packages\\dal\\pydal\\adapters\\base.py", line 632, in _select_wcols\n    sql_fields = \', \'.join(self._geoexpand(x, query_env) for x in fields)\n  File "C:\\Users\\ferna\\Downloads\\web2py\\gluon\\packages\\dal\\pydal\\adapters\\base.py", line 632, in <genexpr>\n    sql_fields = \', \'.join(self._geoexpand(x, query_env) for x in fields)\n  File "C:\\Users\\ferna\\Downloads\\web2py\\gluon\\packages\\dal\\pydal\\adapters\\base.py", line 550, in _geoexpand\n    if isinstance(field.type, str) and field.type.startswith(\'geo\') and \\\nAttributeError: \'Query\' object has no attribute \'type\'\n'
p295
s.